	.text
	.file	"oppo_cfs_common.c"
	.file	1 "../../kernel/oppocfs/oppo_cfs_common.c"
	.file	2 "../../kernel/oppocfs/../sched/sched.h"
	.file	3 "../../include/linux/module.h"
	.file	4 "../../include/linux/kobject_ns.h"
	.file	5 "../../include/linux/trace_events.h"
	.file	6 "../../include/linux/writeback.h"
	.file	7 "../../include/linux/backing-dev-defs.h"
	.file	8 "../../include/linux/migrate_mode.h"
	.file	9 "../../include/linux/blkdev.h"
	.file	10 "../../include/linux/elevator.h"
	.file	11 "../../include/linux/memremap.h"
	.file	12 "../../include/linux/memcontrol.h"
	.file	13 "../../include/linux/mmzone.h"
	.file	14 "../../include/linux/mm.h"
	.file	15 "../../include/linux/device.h"
	.file	16 "../../include/linux/pm.h"
	.file	17 "../../include/linux/dma-direction.h"
	.file	18 "../../include/linux/hrtimer.h"
	.file	19 "../../include/linux/perf_event.h"
	.file	20 "../../include/linux/quota.h"
	.file	21 "../../include/linux/rcu_sync.h"
	.file	22 "../../include/linux/fs.h"
	.file	23 "../../include/linux/pid.h"
	.file	24 "../../include/linux/restart_block.h"
	.file	25 "../../include/linux/types.h"
	.file	26 "../../include/linux/refcount.h"
	.file	27 "../../include/linux/skbuff.h"
	.file	28 "../../include/uapi/asm-generic/int-ll64.h"
	.file	29 "../../include/asm-generic/int-ll64.h"
	.file	30 "../../include/uapi/linux/types.h"
	.file	31 "../../include/uapi/linux/in6.h"
	.file	32 "../../include/linux/uprobes.h"
	.file	33 "../../include/linux/stddef.h"
	.file	34 "../../include/linux/sched.h"
	.file	35 "../../include/asm-generic/qspinlock_types.h"
	.file	36 "../../include/linux/spinlock_types.h"
	.file	37 "../../include/linux/rbtree.h"
	.file	38 "../../include/linux/cgroup-defs.h"
	.file	39 "../../include/linux/kernfs.h"
	.file	40 "../../include/linux/radix-tree.h"
	.file	41 "../../include/linux/idr.h"
	.file	42 "../../include/linux/seq_file.h"
	.file	43 "../../include/uapi/asm-generic/posix_types.h"
	.file	44 "../../include/asm-generic/atomic-long.h"
	.file	45 "../../include/linux/mutex.h"
	.file	46 "../../include/linux/osq_lock.h"
	.file	47 "../../arch/arm64/include/asm/thread_info.h"
	.file	48 "../../include/linux/llist.h"
	.file	49 "../../include/linux/lockdep.h"
	.file	50 "../../include/linux/cpumask.h"
	.file	51 "../../include/linux/plist.h"
	.file	52 "../../include/linux/timerqueue.h"
	.file	53 "../../include/linux/ktime.h"
	.file	54 "../../include/linux/seqlock.h"
	.file	55 "../../include/linux/mm_types.h"
	.file	56 "../../arch/arm64/include/asm/pgtable-types.h"
	.file	57 "../../include/asm-generic/pgtable-nop4d-hack.h"
	.file	58 "../../include/linux/uidgid.h"
	.file	59 "../../include/linux/dcache.h"
	.file	60 "../../include/linux/list_bl.h"
	.file	61 "../../include/linux/lockref.h"
	.file	62 "../../include/linux/path.h"
	.file	63 "../../include/linux/kobject.h"
	.file	64 "../../include/linux/sysfs.h"
	.file	65 "../../include/linux/kref.h"
	.file	66 "../../include/linux/completion.h"
	.file	67 "../../include/linux/wait.h"
	.file	68 "../../include/linux/export.h"
	.file	69 "../../include/linux/moduleparam.h"
	.file	70 "../../arch/arm64/include/asm/extable.h"
	.file	71 "../../include/linux/rbtree_latch.h"
	.file	72 "../../include/uapi/linux/elf.h"
	.file	73 "../../arch/arm64/include/asm/module.h"
	.file	74 "../../include/asm-generic/bug.h"
	.file	75 "../../include/linux/tracepoint-defs.h"
	.file	76 "../../include/linux/jump_label.h"
	.file	77 "../../include/linux/trace_seq.h"
	.file	78 "../../include/linux/seq_buf.h"
	.file	79 "../../include/linux/uio.h"
	.file	80 "../../include/uapi/linux/uio.h"
	.file	81 "../../include/linux/bvec.h"
	.file	82 "../../include/linux/pipe_fs_i.h"
	.file	83 "../../include/asm-generic/qrwlock_types.h"
	.file	84 "../../include/linux/rwlock_types.h"
	.file	85 "../../include/linux/sched/user.h"
	.file	86 "../../include/linux/key.h"
	.file	87 "../../include/linux/rwsem.h"
	.file	88 "../../include/linux/time64.h"
	.file	89 "../../include/linux/assoc_array.h"
	.file	90 "../../include/linux/ratelimit.h"
	.file	91 "../../include/linux/poll.h"
	.file	92 "../../include/linux/nfs_fs_i.h"
	.file	93 "../../include/linux/pid_namespace.h"
	.file	94 "../../include/linux/user_namespace.h"
	.file	95 "../../include/linux/ns_common.h"
	.file	96 "../../include/linux/workqueue.h"
	.file	97 "../../include/linux/sysctl.h"
	.file	98 "../../include/linux/cred.h"
	.file	99 "../../include/linux/capability.h"
	.file	100 "../../include/linux/errseq.h"
	.file	101 "../../include/linux/mod_devicetable.h"
	.file	102 "../../include/linux/pm_wakeup.h"
	.file	103 "../../include/linux/timer.h"
	.file	104 "../../include/linux/dma-mapping.h"
	.file	105 "../../include/linux/scatterlist.h"
	.file	106 "../../arch/arm64/include/asm/device.h"
	.file	107 "../../include/linux/of.h"
	.file	108 "../../include/linux/fwnode.h"
	.file	109 "../../include/linux/klist.h"
	.file	110 "../../include/asm-generic/local.h"
	.file	111 "../../include/asm-generic/local64.h"
	.file	112 "../../include/uapi/linux/perf_event.h"
	.file	113 "../../arch/arm64/include/asm/hw_breakpoint.h"
	.file	114 "../../include/linux/irq_work.h"
	.file	115 "../../include/linux/perf_regs.h"
	.file	116 "../../arch/arm64/include/uapi/asm/ptrace.h"
	.file	117 "../../arch/arm64/include/asm/ptrace.h"
	.file	118 "../../include/linux/tracepoint.h"
	.file	119 "../../include/linux/percpu_counter.h"
	.file	120 "../../include/linux/flex_proportions.h"
	.file	121 "../../include/linux/percpu-refcount.h"
	.file	122 "../../include/linux/projid.h"
	.file	123 "../../include/linux/shrinker.h"
	.file	124 "../../include/linux/page_counter.h"
	.file	125 "../../include/linux/vmpressure.h"
	.file	126 "../../include/linux/genhd.h"
	.file	127 "../../include/linux/blk_types.h"
	.file	128 "../../include/linux/iocontext.h"
	.file	129 "../../include/linux/bio.h"
	.file	130 "../../include/linux/mempool.h"
	.file	131 "../../include/linux/smp.h"
	.file	132 "../../include/linux/bsg.h"
	.file	133 "../../include/uapi/linux/bsg.h"
	.file	134 "../../include/linux/percpu-rwsem.h"
	.file	135 "../../include/linux/rcuwait.h"
	.file	136 "../../include/linux/uuid.h"
	.file	137 "../../include/linux/list_lru.h"
	.file	138 "../../include/linux/delayed_call.h"
	.file	139 "../../include/linux/stat.h"
	.file	140 "../../include/uapi/linux/fiemap.h"
	.file	141 "../../include/linux/swap.h"
	.file	142 "../../arch/arm64/include/asm/page.h"
	.file	143 "../../include/linux/ioport.h"
	.file	144 "../../include/linux/mm_types_task.h"
	.file	145 "../../include/linux/binfmts.h"
	.file	146 "../../include/uapi/linux/resource.h"
	.file	147 "../../include/uapi/asm-generic/siginfo.h"
	.file	148 "../../arch/arm64/include/asm/mmu.h"
	.file	149 "../../include/uapi/linux/time.h"
	.file	150 "../../include/linux/compat_time.h"
	.file	151 "../../include/uapi/asm-generic/poll.h"
	.file	152 "../../include/linux/nsproxy.h"
	.file	153 "../../include/linux/utsname.h"
	.file	154 "../../include/uapi/linux/utsname.h"
	.file	155 "../../include/net/net_namespace.h"
	.file	156 "../../include/net/netns/core.h"
	.file	157 "../../include/net/snmp.h"
	.file	158 "../../include/net/netns/mib.h"
	.file	159 "../../include/linux/u64_stats_sync.h"
	.file	160 "../../include/net/netns/packet.h"
	.file	161 "../../include/net/netns/unix.h"
	.file	162 "../../include/net/netns/ipv4.h"
	.file	163 "../../include/net/inet_frag.h"
	.file	164 "../../include/linux/rhashtable-types.h"
	.file	165 "../../include/linux/siphash.h"
	.file	166 "../../include/net/netns/ipv6.h"
	.file	167 "../../include/net/dst_ops.h"
	.file	168 "../../include/net/netns/sctp.h"
	.file	169 "../../include/net/netns/netfilter.h"
	.file	170 "../../include/net/netns/x_tables.h"
	.file	171 "../../include/net/netns/conntrack.h"
	.file	172 "../../include/linux/list_nulls.h"
	.file	173 "../../include/linux/netfilter/nf_conntrack_common.h"
	.file	174 "../../include/net/netns/xfrm.h"
	.file	175 "../../include/linux/cgroup.h"
	.file	176 "../../include/linux/sched/signal.h"
	.file	177 "../../include/linux/signal_types.h"
	.file	178 "../../include/uapi/asm-generic/signal.h"
	.file	179 "../../kernel/oppocfs/../sched/autogroup.h"
	.file	180 "../../include/linux/task_io_accounting.h"
	.file	181 "../../include/uapi/linux/taskstats.h"
	.file	182 "../../include/uapi/asm-generic/signal-defs.h"
	.file	183 "../../include/linux/seccomp.h"
	.file	184 "../../include/linux/nodemask.h"
	.file	185 "../../arch/arm64/include/asm/compat.h"
	.file	186 "../../include/linux/compat.h"
	.file	187 "../../include/uapi/linux/rseq.h"
	.file	188 "../../arch/arm64/include/asm/uprobes.h"
	.file	189 "../../include/linux/vmalloc.h"
	.file	190 "../../arch/arm64/include/asm/processor.h"
	.file	191 "../../../../out/target/product/kona/obj/kernel/msm-4.19/kernel/oppocfs/oppo_cfs_common.c"
	.file	192 "../../include/linux/psi_types.h"
	.file	193 "../../include/linux/kthread.h"
	.file	194 "../../include/linux/bpf-cgroup.h"
	.file	195 "../../kernel/oppocfs/../sched/cpudeadline.h"
	.file	196 "../../kernel/oppocfs/../sched/cpupri.h"
	.file	197 "../../include/linux/energy_model.h"
	.file	198 "../../include/linux/sched/topology.h"
	.file	199 "../../include/linux/stop_machine.h"
	.file	200 "../../include/linux/cpuidle.h"
	.globl	test_task_ux
	.p2align	3
	.type	test_task_ux,@function
test_task_ux:
.Lfunc_begin0:
	.loc	1 46 0
	.cfi_sections .debug_frame
	.cfi_startproc
	str	x19, [sp, #-32]!
	stp	x29, x30, [sp, #16]
	add	x29, sp, #16
	.cfi_def_cfa w29, 16
	.cfi_offset w30, -8
	.cfi_offset w29, -16
	.cfi_offset w19, -32
.Ltmp0:
	.loc	1 49 14 prologue_end
	cbz	x0, .LBB0_4
.Ltmp1:
	.loc	1 49 23 is_stmt 0
	ldr	x8, [x0, #184]
	mov	x19, x0
.Ltmp2:
	.loc	1 49 35
	adrp	x9, fair_sched_class
	add	x9, x9, :lo12:fair_sched_class
.Ltmp3:
	.loc	1 49 9
	cmp	x8, x9
	b.ne	.LBB0_5
.Ltmp4:
	.loc	1 52 23 is_stmt 1
	ldr	w8, [x19, #2744]
.Ltmp5:
	.loc	1 52 9 is_stmt 0
	cbz	w8, .LBB0_7
.Ltmp6:
.LBB0_3:
	.loc	1 0 9
	orr	w0, wzr, #0x1
	b	.LBB0_6
.Ltmp7:
.LBB0_4:
	.loc	1 55 28 is_stmt 1
	adrp	x8, jiffies
	ldr	x0, [x8, :lo12:jiffies]
.Ltmp8:
	.file	201 "../../include/linux/jiffies.h"
	.loc	201 296 14
	bl	jiffies_to_usecs
.Ltmp9:
.LBB0_5:
	.loc	201 0 14 is_stmt 0
	mov	w0, wzr
.LBB0_6:
	.loc	1 61 1 is_stmt 1
	ldp	x29, x30, [sp, #16]
	ldr	x19, [sp], #32
	ret
.LBB0_7:
.Ltmp10:
	.loc	1 55 28
	adrp	x8, jiffies
	ldr	x0, [x8, :lo12:jiffies]
.Ltmp11:
	.loc	201 296 14
	bl	jiffies_to_usecs
.Ltmp12:
	.file	202 "../../include/linux/compiler.h"
	.loc	202 193 202
	ldr	x8, [x19, #2752]
.Ltmp13:
	.loc	1 56 340
	cbz	x8, .LBB0_5
.Ltmp14:
	.loc	1 57 48
	adrp	x8, ux_max_dynamic_granularity
	.loc	1 57 22 is_stmt 0
	ldr	x10, [x19, #2792]
.Ltmp15:
	.loc	201 296 34 is_stmt 1
	mov	w9, #1000
	mov	w11, #16960
.Ltmp16:
	.loc	1 57 48
	ldrsw	x8, [x8, :lo12:ux_max_dynamic_granularity]
	movk	w11, #15, lsl #16
.Ltmp17:
	.loc	201 296 34
	umull	x9, w0, w9
.Ltmp18:
	.loc	1 57 14
	sub	x9, x9, x10
	.loc	1 57 75 is_stmt 0
	mul	x8, x8, x11
.Ltmp19:
	.loc	1 56 9 is_stmt 1
	cmp	x9, x8
	b.ls	.LBB0_3
	b	.LBB0_5
.Ltmp20:
.Lfunc_end0:
	.size	test_task_ux, .Lfunc_end0-test_task_ux
	.cfi_endproc
	.globl	enqueue_ux_thread
	.p2align	3
	.type	enqueue_ux_thread,@function
enqueue_ux_thread:
.Lfunc_begin1:
	.loc	1 64 0
	.cfi_startproc
	str	x21, [sp, #-48]!
	stp	x20, x19, [sp, #16]
	stp	x29, x30, [sp, #32]
	add	x29, sp, #32
	.cfi_def_cfa w29, 16
	.cfi_offset w30, -8
	.cfi_offset w29, -16
	.cfi_offset w19, -24
	.cfi_offset w20, -32
	.cfi_offset w21, -48
.Ltmp21:
	.loc	1 68 10 prologue_end
	cbz	x0, .LBB1_4
.Ltmp22:
	.loc	1 0 10 is_stmt 0
	mov	x19, x1
.Ltmp23:
	.loc	1 68 10
	cbz	x1, .LBB1_4
.Ltmp24:
	.loc	202 193 202 is_stmt 1
	ldr	x8, [x19, #2760]
.Ltmp25:
	.loc	1 68 35
	add	x21, x19, #2760
.Ltmp26:
	.loc	1 68 6 is_stmt 0
	cmp	x21, x8
	b.ne	.LBB1_4
.Ltmp27:
	.loc	1 49 23 is_stmt 1
	ldr	x8, [x19, #184]
	mov	x20, x0
.Ltmp28:
	.loc	1 71 24
	ldr	x9, [x0, #2424]
.Ltmp29:
	.loc	1 49 35
	adrp	x10, fair_sched_class
	add	x10, x10, :lo12:fair_sched_class
.Ltmp30:
	.loc	1 49 9 is_stmt 0
	cmp	x8, x10
.Ltmp31:
	.loc	1 71 18 is_stmt 1
	str	x9, [x19, #2784]
.Ltmp32:
	.loc	1 49 9
	b.eq	.LBB1_5
.Ltmp33:
.LBB1_4:
	.loc	1 84 1
	ldp	x29, x30, [sp, #32]
	ldp	x20, x19, [sp, #16]
	ldr	x21, [sp], #48
	ret
.LBB1_5:
.Ltmp34:
	.loc	1 52 23
	ldr	w8, [x19, #2744]
.Ltmp35:
	.loc	1 52 9 is_stmt 0
	cbz	w8, .LBB1_9
.Ltmp36:
.LBB1_6:
	.loc	1 73 37 is_stmt 1
	ldr	x9, [x20, #3608]
.Ltmp37:
	.loc	1 73 20 is_stmt 0
	add	x8, x20, #3608
.Ltmp38:
.LBB1_7:
	.loc	1 73 3
	cmp	x9, x8
	b.eq	.LBB1_11
.Ltmp39:
	.loc	1 0 0
	ldr	x10, [x9]
.Ltmp40:
	.loc	1 74 8 is_stmt 1
	cmp	x9, x21
	mov	x9, x10
.Ltmp41:
	b.ne	.LBB1_7
	b	.LBB1_4
.Ltmp42:
.LBB1_9:
	.loc	1 55 28
	adrp	x8, jiffies
	ldr	x0, [x8, :lo12:jiffies]
.Ltmp43:
	.loc	201 296 14
	bl	jiffies_to_usecs
.Ltmp44:
	.loc	202 193 202
	ldr	x8, [x19, #2752]
.Ltmp45:
	.loc	1 56 340
	cbz	x8, .LBB1_4
.Ltmp46:
	.loc	1 57 48
	adrp	x8, ux_max_dynamic_granularity
	.loc	1 57 22 is_stmt 0
	ldr	x10, [x19, #2792]
.Ltmp47:
	.loc	201 296 34 is_stmt 1
	mov	w9, #1000
	mov	w11, #16960
.Ltmp48:
	.loc	1 57 48
	ldrsw	x8, [x8, :lo12:ux_max_dynamic_granularity]
	movk	w11, #15, lsl #16
.Ltmp49:
	.loc	201 296 34
	umull	x9, w0, w9
.Ltmp50:
	.loc	1 57 14
	sub	x9, x9, x10
	.loc	1 57 75 is_stmt 0
	mul	x8, x8, x11
.Ltmp51:
	.loc	1 56 9 is_stmt 1
	cmp	x9, x8
	b.hi	.LBB1_4
	b	.LBB1_6
.Ltmp52:
.LBB1_11:
	.file	203 "../../include/linux/list.h"
	.loc	203 93 24
	ldr	x9, [x20, #3616]
.Ltmp53:
	.loc	203 63 13
	str	x21, [x20, #3616]
	.loc	203 64 12
	str	x8, [x19, #2760]
.Ltmp54:
	.file	204 "../../arch/arm64/include/asm/atomic_ll_sc.h"
	.loc	204 113 352
	add	x8, x19, #96
.Ltmp55:
	.loc	203 65 12
	str	x9, [x19, #2768]
.Ltmp56:
	.loc	202 220 31
	str	x21, [x9]
.Ltmp57:
	.loc	204 113 163
	prfm	pstl1strm, [x8]
1:	ldxr	w9, [x8]
	add	w9, w9, #1
	stxr	w10, w9, [x8]
	cbnz	w10, 1b
.Ltmp58:
	.loc	204 0 163 is_stmt 0
	b	.LBB1_4
.Ltmp59:
.Lfunc_end1:
	.size	enqueue_ux_thread, .Lfunc_end1-enqueue_ux_thread
	.cfi_endproc
	.globl	dequeue_ux_thread
	.p2align	3
	.type	dequeue_ux_thread,@function
dequeue_ux_thread:
.Lfunc_begin2:
	.loc	1 87 0 is_stmt 1
	.cfi_startproc
	stp	x20, x19, [sp, #-32]!
	stp	x29, x30, [sp, #16]
	add	x29, sp, #16
	.cfi_def_cfa w29, 16
	.cfi_offset w30, -8
	.cfi_offset w29, -16
	.cfi_offset w19, -24
	.cfi_offset w20, -32
.Ltmp60:
	.loc	1 89 29 prologue_end
	adrp	x8, jiffies
	mov	x20, x0
.Ltmp61:
	.loc	1 0 29 is_stmt 0
	mov	x19, x1
.Ltmp62:
	.loc	1 89 29
	ldr	x8, [x8, :lo12:jiffies]
.Ltmp63:
	.loc	201 296 14 is_stmt 1
	mov	x0, x8
	bl	jiffies_to_usecs
.Ltmp64:
	.loc	1 91 10
	cbz	x20, .LBB2_11
.Ltmp65:
	cbz	x19, .LBB2_11
.Ltmp66:
	.loc	1 94 18
	str	xzr, [x19, #2784]
.Ltmp67:
	.loc	1 95 22
	add	x8, x19, #2760
.Ltmp68:
	.loc	202 193 202
	ldr	x9, [x19, #2760]
.Ltmp69:
	.loc	1 95 6
	cmp	x8, x9
	b.eq	.LBB2_11
.Ltmp70:
	.loc	202 193 202
	ldr	x10, [x19, #2752]
.Ltmp71:
	.loc	1 96 315
	cbz	x10, .LBB2_6
.Ltmp72:
	.loc	1 96 353 is_stmt 0
	adrp	x10, ux_max_dynamic_exist
	.loc	1 96 328
	ldr	x12, [x19, #2792]
	mov	w11, #1000
	mov	w13, #16960
	.loc	1 96 353
	ldrsw	x10, [x10, :lo12:ux_max_dynamic_exist]
	movk	w13, #15, lsl #16
	umull	x11, w0, w11
.Ltmp73:
	.loc	1 96 323
	sub	x11, x11, x12
.Ltmp74:
	.loc	1 96 374
	mul	x10, x10, x13
.Ltmp75:
	.loc	1 96 7
	cmp	x11, x10
	b.ls	.LBB2_6
.Ltmp76:
	.loc	202 220 31 is_stmt 1
	str	xzr, [x19, #2752]
.Ltmp77:
.LBB2_6:
	.loc	1 99 37
	ldr	x11, [x20, #3608]
.Ltmp78:
	.loc	1 99 20 is_stmt 0
	add	x10, x20, #3608
.Ltmp79:
.LBB2_7:
	.loc	1 99 3
	cmp	x11, x10
	b.eq	.LBB2_11
.Ltmp80:
	.loc	1 0 0
	ldr	x12, [x11]
.Ltmp81:
	.loc	1 100 8 is_stmt 1
	cmp	x11, x8
	mov	x11, x12
.Ltmp82:
	b.ne	.LBB2_7
.Ltmp83:
	.loc	203 120 20
	ldr	x10, [x19, #2768]
.Ltmp84:
	.loc	204 114 777
	add	x11, x19, #96
.Ltmp85:
	.loc	203 105 13
	str	x10, [x9, #8]
.Ltmp86:
	.loc	202 220 31
	str	x9, [x10]
.Ltmp87:
	.loc	202 220 31 is_stmt 0
	str	x8, [x19, #2760]
.Ltmp88:
	.loc	203 29 13 is_stmt 1
	str	x8, [x19, #2768]
.Ltmp89:
	.loc	204 114 546
	prfm	pstl1strm, [x11]
1:	ldxr	w8, [x11]
	sub	w8, w8, #1
	stlxr	w9, w8, [x11]
	cbnz	w9, 1b
	dmb ish
.Ltmp90:
	.file	205 "../../include/linux/sched/task.h"
	.loc	205 95 6
	cbnz	w8, .LBB2_11
.Ltmp91:
	.loc	205 96 3
	mov	x0, x19
	bl	__put_task_struct
.Ltmp92:
.LBB2_11:
	.loc	1 107 1
	ldp	x29, x30, [sp, #16]
	ldp	x20, x19, [sp], #32
.Ltmp93:
	ret
.Ltmp94:
.Lfunc_end2:
	.size	dequeue_ux_thread, .Lfunc_end2-dequeue_ux_thread
	.cfi_endproc
	.file	206 "../../include/linux/atomic.h"
	.globl	pick_ux_thread
	.p2align	3
	.type	pick_ux_thread,@function
pick_ux_thread:
.Lfunc_begin3:
	.loc	1 138 0
	.cfi_startproc
	stp	x28, x27, [sp, #-96]!
	stp	x26, x25, [sp, #16]
	stp	x24, x23, [sp, #32]
	stp	x22, x21, [sp, #48]
	stp	x20, x19, [sp, #64]
	stp	x29, x30, [sp, #80]
	add	x29, sp, #80
	.cfi_def_cfa w29, 16
	.cfi_offset w30, -8
	.cfi_offset w29, -16
	.cfi_offset w19, -24
	.cfi_offset w20, -32
	.cfi_offset w21, -40
	.cfi_offset w22, -48
	.cfi_offset w23, -56
	.cfi_offset w24, -64
	.cfi_offset w25, -72
	.cfi_offset w26, -80
	.cfi_offset w27, -88
	.cfi_offset w28, -96
.Ltmp95:
	.loc	1 142 10 prologue_end
	cbz	x0, .LBB3_6
.Ltmp96:
	.loc	1 0 10 is_stmt 0
	mov	x20, x1
.Ltmp97:
	.loc	1 142 10
	cbz	x1, .LBB3_6
.Ltmp98:
	.loc	1 0 10
	mov	x19, x2
.Ltmp99:
	.loc	1 142 10
	cbz	x2, .LBB3_6
.Ltmp100:
	.loc	1 145 10 is_stmt 1
	ldr	x22, [x20]
.Ltmp101:
	.loc	1 146 12
	cbz	x22, .LBB3_6
.Ltmp102:
	.loc	1 146 23 is_stmt 0
	ldr	w8, [x22, #2744]
	.loc	1 146 33
	cbnz	w8, .LBB3_6
.Ltmp103:
	.loc	202 193 202 is_stmt 1
	ldr	x8, [x22, #2752]
.Ltmp104:
	.loc	1 146 6
	cbz	x8, .LBB3_7
.Ltmp105:
.LBB3_6:
	.loc	1 163 1
	ldp	x29, x30, [sp, #80]
	ldp	x20, x19, [sp, #64]
	ldp	x22, x21, [sp, #48]
	ldp	x24, x23, [sp, #32]
	ldp	x26, x25, [sp, #16]
	ldp	x28, x27, [sp], #96
	ret
.LBB3_7:
.Ltmp106:
	.loc	202 193 202
	ldr	x26, [x0, #3608]
.Ltmp107:
	.loc	202 0 202 is_stmt 0
	mov	x21, x0
.Ltmp108:
	.loc	1 147 24 is_stmt 1
	add	x25, x0, #3608
.Ltmp109:
	.loc	1 147 7 is_stmt 0
	cmp	x25, x26
	b.eq	.LBB3_6
.Ltmp110:
	.loc	1 0 7
	adrp	x28, fair_sched_class
	mov	x24, xzr
	adrp	x27, jiffies
	add	x28, x28, :lo12:fair_sched_class
.Ltmp111:
.LBB3_9:
	.loc	34 2077 91 is_stmt 1
	sub	x9, x26, #2636
.Ltmp112:
	.loc	34 0 91 is_stmt 0
	mov	x8, x26
.Ltmp113:
	ldr	x26, [x26]
.Ltmp114:
	.loc	1 117 330 is_stmt 1
	sub	x23, x8, #2760
.Ltmp115:
	.loc	202 193 149
	ldr	w9, [x9]
.Ltmp116:
	.loc	1 119 49
	ldr	w10, [x21, #2576]
.Ltmp117:
	.loc	1 119 7 is_stmt 0
	cmp	w9, w10
	b.ne	.LBB3_20
.Ltmp118:
	.loc	1 49 14 is_stmt 1
	cbz	x23, .LBB3_15
.Ltmp119:
	.loc	1 49 23 is_stmt 0
	ldr	x8, [x23, #184]
.Ltmp120:
	.loc	1 49 9
	cmp	x8, x28
	b.ne	.LBB3_16
.Ltmp121:
	.loc	1 52 23 is_stmt 1
	ldr	w8, [x23, #2744]
.Ltmp122:
	.loc	1 52 9 is_stmt 0
	cbz	w8, .LBB3_17
.Ltmp123:
.LBB3_13:
	.loc	1 127 7 is_stmt 1
	cbz	x24, .LBB3_19
.Ltmp124:
	.loc	1 34 18
	ldr	x8, [x23, #280]
	.loc	1 34 32 is_stmt 0
	ldr	x9, [x24, #280]
	.loc	1 34 27
	sub	x8, x8, x9
.Ltmp125:
	.loc	1 129 14 is_stmt 1
	cmp	x8, #0
	csel	x24, x24, x23, ge
.Ltmp126:
	.loc	1 116 2
	cmp	x26, x25
	b.ne	.LBB3_9
	b	.LBB3_21
.Ltmp127:
.LBB3_15:
	.loc	1 55 28
	ldr	x0, [x27, :lo12:jiffies]
.Ltmp128:
	.loc	201 296 14
	bl	jiffies_to_usecs
.Ltmp129:
.LBB3_16:
	.loc	1 116 2
	cmp	x26, x25
	b.ne	.LBB3_9
	b	.LBB3_21
.Ltmp130:
.LBB3_17:
	.loc	1 55 28
	ldr	x0, [x27, :lo12:jiffies]
.Ltmp131:
	.loc	201 296 14
	bl	jiffies_to_usecs
.Ltmp132:
	.loc	202 193 202
	ldr	x8, [x23, #2752]
.Ltmp133:
	.loc	1 56 340
	cbz	x8, .LBB3_16
.Ltmp134:
	.loc	1 57 48
	adrp	x8, ux_max_dynamic_granularity
	.loc	1 57 22 is_stmt 0
	ldr	x9, [x23, #2792]
.Ltmp135:
	.loc	201 296 34 is_stmt 1
	mov	w10, #1000
.Ltmp136:
	.loc	1 57 75
	mov	w11, #16960
	.loc	1 57 48 is_stmt 0
	ldrsw	x8, [x8, :lo12:ux_max_dynamic_granularity]
	.loc	1 57 75
	movk	w11, #15, lsl #16
.Ltmp137:
	.loc	201 296 34 is_stmt 1
	umull	x10, w0, w10
.Ltmp138:
	.loc	1 57 14
	sub	x9, x10, x9
	.loc	1 57 75 is_stmt 0
	mul	x8, x8, x11
.Ltmp139:
	.loc	1 56 9 is_stmt 1
	cmp	x9, x8
	b.ls	.LBB3_13
	b	.LBB3_16
.Ltmp140:
.LBB3_19:
	.loc	1 0 9 is_stmt 0
	mov	x24, x23
.Ltmp141:
	.loc	1 116 2 is_stmt 1
	cmp	x26, x25
	b.ne	.LBB3_9
	b	.LBB3_21
.Ltmp142:
.LBB3_20:
	.loc	203 120 20
	ldr	x8, [x23, #2768]
.Ltmp143:
	.loc	1 121 25
	add	x9, x23, #2760
.Ltmp144:
	.loc	203 105 13
	str	x8, [x26, #8]
.Ltmp145:
	.loc	202 220 31
	str	x26, [x8]
.Ltmp146:
	.loc	202 220 31 is_stmt 0
	str	x9, [x23, #2760]
.Ltmp147:
	.loc	203 29 13 is_stmt 1
	str	x9, [x23, #2768]
.Ltmp148:
	.loc	1 116 2
	cmp	x26, x25
	b.ne	.LBB3_9
.Ltmp149:
.LBB3_21:
	.loc	1 150 26
	cbz	x24, .LBB3_6
.Ltmp150:
	.loc	1 150 52 is_stmt 0
	add	x8, x24, #192
.Ltmp151:
	.loc	1 150 17
	cbz	x8, .LBB3_6
.Ltmp152:
	.loc	1 0 0
	adrp	x9, ux_max_over_thresh
	ldr	x10, [x24, #280]
	ldr	x11, [x22, #280]
	mov	w12, #16960
	movk	w12, #15, lsl #16
	ldrsw	x9, [x9, :lo12:ux_max_over_thresh]
	sub	x10, x10, x11
	mul	x9, x9, x12
	.loc	1 150 17
	cmp	x10, x9
	b.gt	.LBB3_6
.Ltmp153:
	.loc	1 155 24 is_stmt 1
	ldr	x9, [x21, #2424]
	.loc	1 155 43 is_stmt 0
	ldr	x10, [x24, #2784]
	.loc	1 155 57
	subs	x9, x9, x10
	b.lo	.LBB3_6
.Ltmp154:
	.loc	1 156 49 is_stmt 1
	adrp	x10, ux_min_sched_delay_granularity
	.loc	1 156 80 is_stmt 0
	mov	w11, #16960
	movk	w11, #15, lsl #16
	.loc	1 156 49
	ldrsw	x10, [x10, :lo12:ux_min_sched_delay_granularity]
	.loc	1 156 80
	mul	x10, x10, x11
.Ltmp155:
	.loc	1 155 9 is_stmt 1
	cmp	x9, x10
	b.lo	.LBB3_6
.Ltmp156:
	.loc	1 157 9
	str	x24, [x20]
	.loc	1 158 10
	str	x8, [x19]
	b	.LBB3_6
.Ltmp157:
.Lfunc_end3:
	.size	pick_ux_thread, .Lfunc_end3-pick_ux_thread
	.cfi_endproc
	.globl	test_dynamic_ux
	.p2align	3
	.type	test_dynamic_ux,@function
test_dynamic_ux:
.Lfunc_begin4:
	.loc	1 175 0
	.cfi_startproc
	.loc	1 177 6 prologue_end
	cbz	x0, .LBB4_2
.Ltmp158:
	.loc	202 193 202
	ldr	x8, [x0, #2752]
.Ltmp159:
	.loc	1 181 55
	lsl	w9, w1, #3
	orr	w10, wzr, #0xff
	.loc	1 181 45 is_stmt 0
	lsl	x10, x10, x9
	.loc	1 181 22
	and	x8, x8, x10
.Ltmp160:
	.loc	1 181 63
	lsr	x8, x8, x9
	.loc	1 181 78
	cmp	x8, #0
	cset	w0, ne
.Ltmp161:
.LBB4_2:
	.loc	1 182 1 is_stmt 1
	ret
.Ltmp162:
.Lfunc_end4:
	.size	test_dynamic_ux, .Lfunc_end4-test_dynamic_ux
	.cfi_endproc
	.globl	dynamic_ux_dequeue
	.p2align	3
	.type	dynamic_ux_dequeue,@function
dynamic_ux_dequeue:
.Lfunc_begin5:
	.loc	1 239 0
	.cfi_startproc
	sub	sp, sp, #80
	str	x21, [sp, #32]
	stp	x20, x19, [sp, #48]
	stp	x29, x30, [sp, #64]
	add	x29, sp, #64
	.cfi_def_cfa w29, 16
	.cfi_offset w30, -8
	.cfi_offset w29, -16
	.cfi_offset w19, -24
	.cfi_offset w20, -32
	.cfi_offset w21, -48
.Ltmp163:
	adrp	x8, __stack_chk_guard
	ldr	x8, [x8, :lo12:__stack_chk_guard]
	str	x8, [sp, #24]
.Ltmp164:
	.loc	1 240 12 prologue_end
	cbz	x0, .LBB5_12
.Ltmp165:
	.loc	1 0 12 is_stmt 0
	mov	w21, w1
.Ltmp166:
	.loc	1 240 12
	cmp	w1, #4
	b.gt	.LBB5_12
.Ltmp167:
	.loc	1 216 7 is_stmt 1
	add	x1, sp, #8
	mov	x19, x0
.Ltmp168:
	bl	task_rq_lock
.Ltmp169:
	.loc	202 193 202
	ldr	x8, [x19, #2752]
.Ltmp170:
	.loc	1 216 7
	mov	x20, x0
.Ltmp171:
	.loc	1 218 6
	cbz	x8, .LBB5_9
.Ltmp172:
	.loc	1 197 32
	lsl	w8, w21, #3
.Ltmp173:
	.loc	1 0 32 is_stmt 0
	orr	w9, wzr, #0x1
.Ltmp174:
	.loc	1 217 137 is_stmt 1
	add	x10, x19, #2752
.Ltmp175:
	.loc	1 197 23
	lsl	x8, x9, x8
.Ltmp176:
	.loc	204 208 169
	prfm	pstl1strm, [x10]
1:	ldxr	x9, [x10]
	sub	x9, x9, x8
	stxr	w11, x9, [x10]
	cbnz	w11, 1b
.Ltmp177:
	.loc	202 193 202
	ldr	x8, [x19, #2752]
.Ltmp178:
	.loc	1 224 6
	cbnz	x8, .LBB5_9
.Ltmp179:
	.loc	1 228 17
	str	wzr, [x19, #2776]
	.loc	1 230 37
	add	x9, x20, #3608
.Ltmp180:
	.loc	1 187 21
	ldr	x10, [x20, #3608]
.Ltmp181:
	.loc	1 0 21 is_stmt 0
	add	x8, x19, #2760
.Ltmp182:
.LBB5_5:
	.loc	1 187 2
	cmp	x10, x9
	b.eq	.LBB5_9
.Ltmp183:
	.loc	1 0 0
	ldr	x11, [x10]
.Ltmp184:
	.loc	1 188 7 is_stmt 1
	cmp	x10, x8
	mov	x10, x11
.Ltmp185:
	b.ne	.LBB5_5
.Ltmp186:
	.loc	203 120 20
	ldr	x9, [x19, #2768]
.Ltmp187:
	.loc	204 114 777
	add	x11, x19, #96
.Ltmp188:
	.loc	203 120 33
	ldr	x10, [x19, #2760]
.Ltmp189:
	.loc	203 105 13
	str	x9, [x10, #8]
.Ltmp190:
	.loc	202 220 31
	str	x10, [x9]
.Ltmp191:
	.loc	202 220 31 is_stmt 0
	str	x8, [x19, #2760]
.Ltmp192:
	.loc	203 29 13 is_stmt 1
	str	x8, [x19, #2768]
.Ltmp193:
	.loc	204 114 546
	prfm	pstl1strm, [x11]
1:	ldxr	w8, [x11]
	sub	w8, w8, #1
	stlxr	w9, w8, [x11]
	cbnz	w9, 1b
	dmb ish
.Ltmp194:
	.loc	205 95 6
	cbnz	w8, .LBB5_9
.Ltmp195:
	.loc	205 96 3
	mov	x0, x19
	bl	__put_task_struct
.Ltmp196:
.LBB5_9:
	.loc	1 0 0 is_stmt 0
	ldr	w8, [x20, #2416]
	cmp	w8, #3
	b.lo	.LBB5_11
.Ltmp197:
	orr	w8, wzr, #0x4
	str	w8, [sp, #16]
.Ltmp198:
.LBB5_11:
	mov	x0, x20
	bl	_raw_spin_unlock
	ldr	x1, [sp, #8]
	add	x0, x19, #2164
	bl	_raw_spin_unlock_irqrestore
.Ltmp199:
.LBB5_12:
	adrp	x9, __stack_chk_guard
	ldr	x8, [sp, #24]
	ldr	x9, [x9, :lo12:__stack_chk_guard]
	cmp	x9, x8
	b.ne	.LBB5_14
	.loc	1 244 1 is_stmt 1
	ldp	x29, x30, [sp, #64]
	ldp	x20, x19, [sp, #48]
	ldr	x21, [sp, #32]
	add	sp, sp, #80
	ret
.Ltmp200:
.LBB5_14:
	.loc	1 0 1 is_stmt 0
	bl	__stack_chk_fail
.Lfunc_end5:
	.size	dynamic_ux_dequeue, .Lfunc_end5-dynamic_ux_dequeue
	.cfi_endproc
	.globl	dynamic_ux_enqueue
	.p2align	3
	.type	dynamic_ux_enqueue,@function
dynamic_ux_enqueue:
.Lfunc_begin6:
	.loc	1 283 0 is_stmt 1
	.cfi_startproc
	sub	sp, sp, #96
	str	x23, [sp, #32]
	stp	x22, x21, [sp, #48]
	stp	x20, x19, [sp, #64]
	stp	x29, x30, [sp, #80]
	add	x29, sp, #80
	.cfi_def_cfa w29, 16
	.cfi_offset w30, -8
	.cfi_offset w29, -16
	.cfi_offset w19, -24
	.cfi_offset w20, -32
	.cfi_offset w21, -40
	.cfi_offset w22, -48
	.cfi_offset w23, -64
.Ltmp201:
	adrp	x8, __stack_chk_guard
	ldr	x8, [x8, :lo12:__stack_chk_guard]
	str	x8, [sp, #24]
.Ltmp202:
	.loc	1 284 12 prologue_end
	cbz	x0, .LBB6_12
.Ltmp203:
	.loc	1 0 12 is_stmt 0
	mov	w22, w1
.Ltmp204:
	.loc	1 284 12
	cmp	w1, #4
	b.gt	.LBB6_12
.Ltmp205:
	.loc	1 256 7 is_stmt 1
	add	x1, sp, #8
	mov	w21, w2
.Ltmp206:
	.loc	1 0 7 is_stmt 0
	mov	x19, x0
.Ltmp207:
	.loc	1 256 7
	bl	task_rq_lock
.Ltmp208:
	.loc	202 193 202 is_stmt 1
	ldr	x8, [x19, #2760]
.Ltmp209:
	.loc	1 256 7
	mov	x20, x0
.Ltmp210:
	.loc	1 263 45
	add	x23, x19, #2760
.Ltmp211:
	.loc	1 263 6 is_stmt 0
	cmp	x23, x8
	b.ne	.LBB6_9
.Ltmp212:
	.loc	1 202 32 is_stmt 1
	lsl	w8, w22, #3
	orr	w9, wzr, #0x1
.Ltmp213:
	.loc	204 207 355
	add	x10, x19, #2752
.Ltmp214:
	.loc	1 202 23
	lsl	x8, x9, x8
.Ltmp215:
	.loc	1 270 44
	adrp	x9, jiffies
.Ltmp216:
	.loc	204 207 169
	prfm	pstl1strm, [x10]
1:	ldxr	x11, [x10]
	add	x11, x11, x8
	stxr	w12, x11, [x10]
	cbnz	w12, 1b
.Ltmp217:
	.loc	1 270 44
	ldr	x0, [x9, :lo12:jiffies]
.Ltmp218:
	.loc	201 296 14
	bl	jiffies_to_usecs
.Ltmp219:
	.loc	1 271 25
	ldr	w8, [x19, #2776]
.Ltmp220:
	.loc	201 296 34
	mov	w9, #1000
.Ltmp221:
	.loc	1 271 42
	add	w10, w21, #1
.Ltmp222:
	.loc	201 296 34
	umull	x9, w0, w9
.Ltmp223:
	.loc	1 271 19
	cmp	w8, w10
	csinc	w8, w8, w21, gt
	.loc	1 270 25
	str	x9, [x19, #2792]
	.loc	1 271 17
	str	w8, [x19, #2776]
.Ltmp224:
	.loc	1 272 12
	ldr	x8, [x19, #80]
	.loc	1 272 28 is_stmt 0
	cbnz	x8, .LBB6_9
.Ltmp225:
	.loc	1 272 37
	ldr	x8, [x19, #184]
	.loc	1 272 49
	adrp	x9, fair_sched_class
	add	x9, x9, :lo12:fair_sched_class
.Ltmp226:
	.loc	1 272 6
	cmp	x8, x9
	b.ne	.LBB6_9
.Ltmp227:
	.loc	1 187 21 is_stmt 1
	ldr	x9, [x20, #3608]
.Ltmp228:
	.loc	1 273 38
	add	x8, x20, #3608
.Ltmp229:
.LBB6_6:
	.loc	1 187 2
	cmp	x9, x8
	b.eq	.LBB6_8
.Ltmp230:
	.loc	1 0 0 is_stmt 0
	ldr	x10, [x9]
.Ltmp231:
	.loc	1 188 7 is_stmt 1
	cmp	x9, x23
	mov	x9, x10
.Ltmp232:
	b.ne	.LBB6_6
	b	.LBB6_9
.Ltmp233:
.LBB6_8:
	.loc	204 113 352
	add	x9, x19, #96
	.loc	204 113 163 is_stmt 0
	prfm	pstl1strm, [x9]
1:	ldxr	w10, [x9]
	add	w10, w10, #1
	stxr	w11, w10, [x9]
	cbnz	w11, 1b
.Ltmp234:
	.loc	203 93 24 is_stmt 1
	ldr	x9, [x20, #3616]
.Ltmp235:
	.loc	203 63 13
	str	x23, [x20, #3616]
	.loc	203 64 12
	str	x8, [x19, #2760]
.Ltmp236:
	.loc	203 65 12
	str	x9, [x19, #2768]
.Ltmp237:
	.loc	202 220 31
	str	x23, [x9]
.Ltmp238:
.LBB6_9:
	.loc	1 0 0 is_stmt 0
	ldr	w8, [x20, #2416]
	cmp	w8, #3
	b.lo	.LBB6_11
.Ltmp239:
	orr	w8, wzr, #0x4
	str	w8, [sp, #16]
.Ltmp240:
.LBB6_11:
	mov	x0, x20
	bl	_raw_spin_unlock
	ldr	x1, [sp, #8]
	add	x0, x19, #2164
	bl	_raw_spin_unlock_irqrestore
.Ltmp241:
.LBB6_12:
	adrp	x9, __stack_chk_guard
	ldr	x8, [sp, #24]
	ldr	x9, [x9, :lo12:__stack_chk_guard]
	cmp	x9, x8
	b.ne	.LBB6_14
	.loc	1 288 1 is_stmt 1
	ldp	x29, x30, [sp, #80]
	ldp	x20, x19, [sp, #64]
	ldp	x22, x21, [sp, #48]
	ldr	x23, [sp, #32]
	add	sp, sp, #96
	ret
.Ltmp242:
.LBB6_14:
	.loc	1 0 1 is_stmt 0
	bl	__stack_chk_fail
.Lfunc_end6:
	.size	dynamic_ux_enqueue, .Lfunc_end6-dynamic_ux_enqueue
	.cfi_endproc
	.globl	test_task_ux_depth
	.p2align	3
	.type	test_task_ux_depth,@function
test_task_ux_depth:
.Lfunc_begin7:
	.loc	1 291 0 is_stmt 1
	.cfi_startproc
	.loc	1 292 18 prologue_end
	cmp	w0, #5
	cset	w0, lt
.Ltmp243:
	.loc	1 292 2 is_stmt 0
	ret
.Ltmp244:
.Lfunc_end7:
	.size	test_task_ux_depth, .Lfunc_end7-test_task_ux_depth
	.cfi_endproc
	.globl	test_set_dynamic_ux
	.p2align	3
	.type	test_set_dynamic_ux,@function
test_set_dynamic_ux:
.Lfunc_begin8:
	.loc	1 296 0 is_stmt 1
	.cfi_startproc
	.loc	1 297 16 prologue_end
	cbz	x0, .LBB8_4
.Ltmp245:
	.loc	1 297 25 is_stmt 0
	ldr	w8, [x0, #2744]
	.loc	1 297 35
	cbnz	w8, .LBB8_3
.Ltmp246:
	.loc	202 193 202 is_stmt 1
	ldr	x8, [x0, #2752]
.Ltmp247:
	.loc	1 297 357
	cbz	x8, .LBB8_5
.Ltmp248:
.LBB8_3:
	.loc	1 298 33
	ldr	w8, [x0, #2776]
.Ltmp249:
	.loc	1 292 18
	cmp	w8, #5
	cset	w0, lt
.Ltmp250:
.LBB8_4:
	.loc	1 297 5
	ret
.LBB8_5:
.Ltmp251:
	.loc	1 0 5 is_stmt 0
	mov	w0, wzr
.Ltmp252:
	.loc	1 297 5
	ret
.Ltmp253:
.Lfunc_end8:
	.size	test_set_dynamic_ux, .Lfunc_end8-test_set_dynamic_ux
	.cfi_endproc
	.globl	trigger_ux_balance
	.p2align	3
	.type	trigger_ux_balance,@function
trigger_ux_balance:
.Lfunc_begin9:
	.loc	1 430 0 is_stmt 1
	.cfi_startproc
	stp	x28, x27, [sp, #-96]!
	stp	x26, x25, [sp, #16]
	stp	x24, x23, [sp, #32]
	stp	x22, x21, [sp, #48]
	stp	x20, x19, [sp, #64]
	stp	x29, x30, [sp, #80]
	add	x29, sp, #80
	.cfi_def_cfa w29, 16
	.cfi_offset w30, -8
	.cfi_offset w29, -16
	.cfi_offset w19, -24
	.cfi_offset w20, -32
	.cfi_offset w21, -40
	.cfi_offset w22, -48
	.cfi_offset w23, -56
	.cfi_offset w24, -64
	.cfi_offset w25, -72
	.cfi_offset w26, -80
	.cfi_offset w27, -88
	.cfi_offset w28, -96
.Ltmp254:
	.loc	1 433 6 prologue_end
	cbz	x0, .LBB9_11
.Ltmp255:
	.loc	1 0 6 is_stmt 0
	mov	x19, x0
.Ltmp256:
	.loc	1 436 2 is_stmt 1
	bl	_raw_spin_lock
.Ltmp257:
	.loc	1 309 31
	ldr	x21, [x19, #3608]
.Ltmp258:
	.loc	1 307 24
	add	x20, x19, #3608
.Ltmp259:
	.loc	1 309 2
	cmp	x21, x20
	b.eq	.LBB9_10
.Ltmp260:
	.loc	1 0 2 is_stmt 0
	mov	w22, #16960
	ldr	x8, [x21]
.Ltmp261:
	adrp	x27, fair_sched_class
	movk	w22, #15, lsl #16
	adrp	x23, jiffies
	mov	w24, #1000
	adrp	x25, ux_max_dynamic_granularity
	adrp	x26, ux_min_migration_delay
	add	x27, x27, :lo12:fair_sched_class
	b	.LBB9_5
.Ltmp262:
.LBB9_3:
	.loc	1 55 28 is_stmt 1
	ldr	x0, [x23, :lo12:jiffies]
.Ltmp263:
	.loc	201 296 14
	bl	jiffies_to_usecs
.Ltmp264:
	.loc	202 193 202
	ldr	x8, [x28, #2752]
.Ltmp265:
	.loc	1 56 340
	cbz	x8, .LBB9_9
.Ltmp266:
	.loc	1 57 48
	ldrsw	x8, [x25, :lo12:ux_max_dynamic_granularity]
.Ltmp267:
	.loc	201 296 34
	umull	x10, w0, w24
.Ltmp268:
	.loc	1 57 22
	ldr	x9, [x28, #2792]
	.loc	1 57 75 is_stmt 0
	mul	x8, x8, x22
	.loc	1 57 14
	sub	x9, x10, x9
.Ltmp269:
	.loc	1 56 9 is_stmt 1
	cmp	x9, x8
	b.ls	.LBB9_8
	b	.LBB9_9
.Ltmp270:
.LBB9_5:
	.loc	1 310 329
	subs	x28, x21, #2760
	mov	x21, x8
.Ltmp271:
	.loc	1 311 11
	b.eq	.LBB9_9
.Ltmp272:
	.loc	1 49 23
	ldr	x8, [x28, #184]
.Ltmp273:
	.loc	1 49 9 is_stmt 0
	cmp	x8, x27
	b.ne	.LBB9_9
.Ltmp274:
	.loc	1 52 23 is_stmt 1
	ldr	w8, [x28, #2744]
.Ltmp275:
	.loc	1 52 9 is_stmt 0
	cbz	w8, .LBB9_3
.Ltmp276:
.LBB9_8:
	.loc	1 311 75 is_stmt 1
	ldrsw	x9, [x26, :lo12:ux_min_migration_delay]
	.loc	1 311 40 is_stmt 0
	ldr	x8, [x19, #2424]
	.loc	1 311 53
	ldr	x10, [x28, #2784]
	.loc	1 311 98
	mul	x9, x9, x22
	.loc	1 311 46
	sub	x8, x8, x10
.Ltmp277:
	.loc	1 311 7
	cmp	x8, x9
	b.hs	.LBB9_12
.Ltmp278:
.LBB9_9:
	.loc	1 0 0
	ldr	x8, [x21]
.Ltmp279:
	.loc	1 309 2 is_stmt 1
	cmp	x21, x20
	b.ne	.LBB9_5
.Ltmp280:
.LBB9_10:
	.loc	1 447 2
	mov	x0, x19
	bl	_raw_spin_unlock
.Ltmp281:
.LBB9_11:
	.loc	1 451 1
	ldp	x29, x30, [sp, #80]
	ldp	x20, x19, [sp, #64]
	ldp	x22, x21, [sp, #48]
	ldp	x24, x23, [sp, #32]
	ldp	x26, x25, [sp, #16]
	ldp	x28, x27, [sp], #96
	ret
.LBB9_12:
.Ltmp282:
	.loc	1 443 11
	ldr	w8, [x19, #3624]
	.loc	1 443 29 is_stmt 0
	cbnz	w8, .LBB9_10
.Ltmp283:
	.loc	1 0 29
	orr	w8, wzr, #0x1
	.loc	1 447 2 is_stmt 1
	mov	x0, x19
.Ltmp284:
	.loc	1 445 25
	str	w8, [x19, #3624]
.Ltmp285:
	.loc	1 447 2
	bl	_raw_spin_unlock
.Ltmp286:
	.loc	2 1093 13
	ldr	w0, [x19, #2576]
.Ltmp287:
	.loc	1 449 3
	adrp	x1, __do_ux_balance
	.loc	1 449 61 is_stmt 0
	add	x3, x19, #3632
	.loc	1 449 3
	add	x1, x1, :lo12:__do_ux_balance
	mov	x2, x19
	bl	stop_one_cpu_nowait
	b	.LBB9_11
.Ltmp288:
.Lfunc_end9:
	.size	trigger_ux_balance, .Lfunc_end9-trigger_ux_balance
	.cfi_endproc
	.p2align	3
	.type	__do_ux_balance,@function
__do_ux_balance:
.Lfunc_begin10:
	.loc	1 376 0 is_stmt 1
	.cfi_startproc
	sub	sp, sp, #112
	stp	x28, x27, [sp, #16]
	stp	x26, x25, [sp, #32]
	stp	x24, x23, [sp, #48]
	stp	x22, x21, [sp, #64]
	stp	x20, x19, [sp, #80]
	stp	x29, x30, [sp, #96]
	add	x29, sp, #96
	.cfi_def_cfa w29, 16
	.cfi_offset w30, -8
	.cfi_offset w29, -16
	.cfi_offset w19, -24
	.cfi_offset w20, -32
	.cfi_offset w21, -40
	.cfi_offset w22, -48
	.cfi_offset w23, -56
	.cfi_offset w24, -64
	.cfi_offset w25, -72
	.cfi_offset w26, -80
	.cfi_offset w27, -88
	.cfi_offset w28, -96
.Ltmp289:
	.loc	2 1093 13 prologue_end
	ldr	w22, [x0, #2576]
.Ltmp290:
	.loc	2 0 13 is_stmt 0
	mov	x19, x0
.Ltmp291:
	.loc	1 385 2 is_stmt 1
	bl	_raw_spin_lock_irq
.Ltmp292:
	.loc	1 386 295
	adrp	x9, cpu_number
.Ltmp293:
	.file	207 "../../arch/arm64/include/asm/percpu.h"
	.loc	207 41 2
	.if 1 == 1
661:
	mrs x8, tpidr_el1
662:
.pushsection .altinstructions,"a"
 .word 661b - .
 .if 0 == 0
 .word 663f - .
 .else
 .word 0- .
 .endif
 .hword 11
 .byte 662b-661b
 .byte 664f-663f
.popsection
 .if 0 == 0
.pushsection .altinstr_replacement, "a"
663:
	mrs x8, tpidr_el2
664:
	.popsection
	.org	. - (664b-663b) + (662b-661b)
	.org	. - (662b-661b) + (664b-663b)
.else
	663:
	664:
	.endif
.endif
.Ltmp294:
	.loc	1 386 295
	add	x9, x9, :lo12:cpu_number
.Ltmp295:
	.loc	1 386 38 is_stmt 0
	ldr	w8, [x8, x9]
.Ltmp296:
	.loc	1 386 329
	cmp	w22, w8
	b.ne	.LBB10_11
.Ltmp297:
	.loc	1 386 341
	ldr	w8, [x19, #3624]
.Ltmp298:
	.loc	1 386 6
	cbz	w8, .LBB10_11
.Ltmp299:
	.loc	1 309 31 is_stmt 1
	ldr	x21, [x19, #3608]
.Ltmp300:
	.loc	1 307 24
	add	x25, x19, #3608
.Ltmp301:
	.loc	1 309 2
	cmp	x21, x25
	b.eq	.LBB10_11
.Ltmp302:
	.loc	1 0 2 is_stmt 0
	mov	w23, #16960
	ldr	x8, [x21]
.Ltmp303:
	adrp	x26, fair_sched_class
	movk	w23, #15, lsl #16
	adrp	x24, jiffies
	adrp	x28, ux_max_dynamic_granularity
	adrp	x27, ux_min_migration_delay
	add	x26, x26, :lo12:fair_sched_class
	b	.LBB10_6
.Ltmp304:
.LBB10_4:
	.loc	1 55 28 is_stmt 1
	ldr	x0, [x24, :lo12:jiffies]
.Ltmp305:
	.loc	201 296 14
	bl	jiffies_to_usecs
.Ltmp306:
	.loc	202 193 202
	ldr	x8, [x20, #2752]
.Ltmp307:
	.loc	1 56 340
	cbz	x8, .LBB10_10
.Ltmp308:
	.loc	1 57 48
	ldrsw	x8, [x28, :lo12:ux_max_dynamic_granularity]
.Ltmp309:
	.loc	201 296 34
	mov	w10, #1000
.Ltmp310:
	.loc	1 57 22
	ldr	x9, [x20, #2792]
.Ltmp311:
	.loc	201 296 34
	umull	x10, w0, w10
.Ltmp312:
	.loc	1 57 75
	mul	x8, x8, x23
	.loc	1 57 14 is_stmt 0
	sub	x9, x10, x9
.Ltmp313:
	.loc	1 56 9 is_stmt 1
	cmp	x9, x8
	b.ls	.LBB10_9
	b	.LBB10_10
.Ltmp314:
.LBB10_6:
	.loc	1 310 329
	subs	x20, x21, #2760
.Ltmp315:
	.loc	1 0 329 is_stmt 0
	mov	x21, x8
.Ltmp316:
	.loc	1 311 11 is_stmt 1
	b.eq	.LBB10_10
.Ltmp317:
	.loc	1 49 23
	ldr	x8, [x20, #184]
.Ltmp318:
	.loc	1 49 9 is_stmt 0
	cmp	x8, x26
	b.ne	.LBB10_10
.Ltmp319:
	.loc	1 52 23 is_stmt 1
	ldr	w8, [x20, #2744]
.Ltmp320:
	.loc	1 52 9 is_stmt 0
	cbz	w8, .LBB10_4
.Ltmp321:
.LBB10_9:
	.loc	1 311 75 is_stmt 1
	ldrsw	x9, [x27, :lo12:ux_min_migration_delay]
	.loc	1 311 40 is_stmt 0
	ldr	x8, [x19, #2424]
	.loc	1 311 53
	ldr	x10, [x20, #2784]
	.loc	1 311 98
	mul	x9, x9, x23
	.loc	1 311 46
	sub	x8, x8, x10
.Ltmp322:
	.loc	1 311 7
	cmp	x8, x9
	b.hs	.LBB10_13
.Ltmp323:
.LBB10_10:
	.loc	1 0 0
	ldr	x8, [x21]
.Ltmp324:
	.loc	1 309 2 is_stmt 1
	cmp	x21, x25
	b.ne	.LBB10_6
.Ltmp325:
.LBB10_11:
	.loc	1 0 0 is_stmt 0
	mov	x0, x19
	str	wzr, [x19, #3624]
	bl	_raw_spin_unlock_irq
.Ltmp326:
.LBB10_12:
	.loc	1 427 1 is_stmt 1
	ldp	x29, x30, [sp, #96]
	ldp	x20, x19, [sp, #80]
.Ltmp327:
	ldp	x22, x21, [sp, #64]
	ldp	x24, x23, [sp, #48]
	ldp	x26, x25, [sp, #32]
	ldp	x28, x27, [sp, #16]
	mov	w0, wzr
	add	sp, sp, #112
	ret
.LBB10_13:
.Ltmp328:
	.loc	1 398 2
	mov	x0, x19
	bl	_raw_spin_unlock
.Ltmp329:
	.loc	1 399 68
	mov	w0, w22
	.loc	1 399 51 is_stmt 0
	add	x24, x20, #1144
	.loc	1 399 68
	bl	cpu_coregroup_mask
	mov	x2, x0
	mov	w0, #-1
	.loc	1 399 23
	mov	x1, x24
	bl	cpumask_next_and
	.loc	1 399 105
	adrp	x27, nr_cpu_ids
	.loc	1 399 23
	mov	w23, w0
.Ltmp330:
	.loc	1 399 105
	ldr	w8, [x27, :lo12:nr_cpu_ids]
.Ltmp331:
	.loc	1 399 2
	cmp	w0, w8
	b.hs	.LBB10_22
.Ltmp332:
	.loc	1 0 2
	adrp	x28, __cpu_online_mask
	str	xzr, [sp, #8]
	add	x28, x28, :lo12:__cpu_online_mask
	orr	w21, wzr, #0x1
.Ltmp333:
.LBB10_15:
	.loc	1 400 20 is_stmt 1
	cmp	w23, w22
	b.eq	.LBB10_17
.Ltmp334:
	.file	208 "../../include/asm-generic/bitops/non-atomic.h"
	.loc	208 106 27
	add	w8, w23, #63
	cmp	w23, #0
	csel	w8, w8, w23, lt
	asr	w8, w8, #6
.Ltmp335:
	.loc	1 400 24
	lsl	x9, x21, x23
.Ltmp336:
	.loc	208 106 16
	ldr	x8, [x28, w8, sxtw #3]
.Ltmp337:
	.loc	1 400 24
	tst	x8, x9
.Ltmp338:
	.loc	1 400 7 is_stmt 0
	b.ne	.LBB10_18
.Ltmp339:
.LBB10_17:
	.loc	1 399 68 is_stmt 1
	mov	w0, w22
	bl	cpu_coregroup_mask
	mov	x2, x0
	.loc	1 399 23 is_stmt 0
	mov	w0, w23
	mov	x1, x24
	bl	cpumask_next_and
	.loc	1 399 105
	ldr	w8, [x27, :lo12:nr_cpu_ids]
	.loc	1 399 23
	mov	w23, w0
.Ltmp340:
	.loc	1 399 2
	cmp	w0, w8
	b.lo	.LBB10_15
	b	.LBB10_21
.Ltmp341:
.LBB10_18:
	.loc	1 402 290 is_stmt 1
	adrp	x8, __per_cpu_offset
	add	x8, x8, :lo12:__per_cpu_offset
	.loc	1 402 285 is_stmt 0
	adrp	x9, runqueues
	add	x9, x9, :lo12:runqueues
	.loc	1 402 290
	ldr	x8, [x8, w23, sxtw #3]
.Ltmp342:
	.loc	1 402 285
	add	x28, x8, x9
.Ltmp343:
	.loc	1 403 3 is_stmt 1
	mov	x0, x28
	bl	_raw_spin_lock
.Ltmp344:
	.loc	1 404 19
	ldr	w8, [x28, #2128]
	.loc	1 404 33 is_stmt 0
	cbz	w8, .LBB10_45
.Ltmp345:
	.loc	202 193 202 is_stmt 1
	ldr	x8, [x28, #3608]
.Ltmp346:
	.loc	1 404 56
	add	x9, x28, #3608
.Ltmp347:
	.loc	1 404 7 is_stmt 0
	cmp	x9, x8
	b.eq	.LBB10_45
.Ltmp348:
	.loc	1 408 4 is_stmt 1
	mov	x0, x28
	str	x28, [sp, #8]
.Ltmp349:
	bl	_raw_spin_unlock
.Ltmp350:
	.loc	1 399 68
	mov	w0, w22
	bl	cpu_coregroup_mask
	mov	x2, x0
	.loc	1 399 23 is_stmt 0
	mov	w0, w23
	mov	x1, x24
	bl	cpumask_next_and
	.loc	1 399 105
	ldr	w8, [x27, :lo12:nr_cpu_ids]
	adrp	x28, __cpu_online_mask
	.loc	1 399 23
	mov	w23, w0
.Ltmp351:
	.loc	1 0 23
	add	x28, x28, :lo12:__cpu_online_mask
.Ltmp352:
	.loc	1 399 2
	cmp	w0, w8
	b.lo	.LBB10_15
.Ltmp353:
.LBB10_21:
	.loc	1 0 2
	ldr	x28, [sp, #8]
	b	.LBB10_23
.Ltmp354:
.LBB10_22:
	mov	x28, xzr
.Ltmp355:
.LBB10_23:
	.loc	1 413 2 is_stmt 1
	mov	x0, x19
	bl	_raw_spin_lock
.Ltmp356:
	.loc	1 414 22
	cbz	x28, .LBB10_43
.Ltmp357:
	.loc	1 0 0 is_stmt 0
	ldr	w8, [x27, :lo12:nr_cpu_ids]
	.loc	1 414 22
	cmp	w23, w8
	b.eq	.LBB10_43
.Ltmp358:
	.loc	2 1690 12 is_stmt 1
	ldr	w8, [x20, #120]
.Ltmp359:
	.loc	1 364 6
	cbnz	w8, .LBB10_43
.Ltmp360:
	.loc	1 323 9
	ldr	x8, [x20, #184]
.Ltmp361:
	.loc	1 323 6 is_stmt 0
	cmp	x8, x26
	b.eq	.LBB10_36
.Ltmp362:
.LBB10_27:
	.loc	202 193 149 is_stmt 1
	ldr	w8, [x20, #124]
.Ltmp363:
	.loc	1 368 284
	adrp	x22, __per_cpu_offset
.Ltmp364:
	add	x22, x22, :lo12:__per_cpu_offset
	.loc	1 368 279 is_stmt 0
	adrp	x23, runqueues
.Ltmp365:
	add	x23, x23, :lo12:runqueues
.Ltmp366:
	.loc	1 368 284
	ldr	x8, [x22, x8, lsl #3]
	.loc	1 368 279
	add	x8, x8, x23
.Ltmp367:
	.loc	1 368 6
	cmp	x8, x19
	b.ne	.LBB10_43
.Ltmp368:
	.loc	1 187 21 is_stmt 1
	ldr	x8, [x25]
.Ltmp369:
	.loc	1 0 21 is_stmt 0
	add	x9, x20, #2760
.Ltmp370:
.LBB10_29:
	.loc	1 187 2
	cmp	x8, x25
	b.eq	.LBB10_43
.Ltmp371:
	.loc	1 0 0
	ldr	x10, [x8]
.Ltmp372:
	.loc	1 188 7 is_stmt 1
	cmp	x8, x9
	mov	x8, x10
.Ltmp373:
	b.ne	.LBB10_29
.Ltmp374:
	.loc	1 345 2
	mov	x0, x19
	mov	x1, x20
	mov	w2, wzr
	bl	deactivate_task
	orr	w8, wzr, #0x2
.Ltmp375:
	.loc	2 0 0 is_stmt 0
	mov	x0, x19
.Ltmp376:
	.loc	1 346 11 is_stmt 1
	str	w8, [x20, #160]
.Ltmp377:
	.file	209 "../../arch/arm64/include/asm/irqflags.h"
	.loc	209 75 2
	mrs	x8, daif	
.Ltmp378:
	.loc	2 2261 26
	sxtb	w21, w8
.Ltmp379:
	.loc	2 0 0 is_stmt 0
	bl	_raw_spin_unlock
.Ltmp380:
	.loc	2 2261 6
	tbz	w21, #31, .LBB10_50
.Ltmp381:
	.loc	209 75 2 is_stmt 1
	mrs	x8, daif	
.Ltmp382:
	.loc	2 2314 31
	sxtb	w8, w8
.Ltmp383:
	.loc	2 2314 11 is_stmt 0
	tbz	w8, #31, .LBB10_51
.Ltmp384:
	.loc	2 2315 6 is_stmt 1
	cmp	x28, x19
	b.eq	.LBB10_47
.Ltmp385:
	.loc	2 2319 7
	b.ls	.LBB10_46
.Ltmp386:
	.loc	2 2320 4
	mov	x0, x19
	bl	_raw_spin_lock
	.loc	2 2321 4
	mov	x0, x28
	b	.LBB10_48
.Ltmp387:
.LBB10_36:
	.loc	1 326 29
	ldr	w8, [x20, #1136]
.Ltmp388:
	.loc	1 326 6 is_stmt 0
	cmp	w8, #5
	b.eq	.LBB10_27
.Ltmp389:
	.loc	1 329 81 is_stmt 1
	ldr	w8, [x28, #4]
	.loc	1 329 92 is_stmt 0
	cbz	w8, .LBB10_40
.Ltmp390:
	.loc	1 330 29 is_stmt 1
	ldr	x9, [x19, #200]
	.loc	1 330 11 is_stmt 0
	add	x8, x20, #192
	.loc	1 330 34
	cmp	x9, x8
	b.eq	.LBB10_43
.Ltmp391:
	.loc	1 330 59
	ldr	x9, [x19, #208]
.Ltmp392:
	.loc	1 329 6 is_stmt 1
	cmp	x9, x8
	b.eq	.LBB10_43
.Ltmp393:
.LBB10_40:
	.loc	1 333 6
	adrp	x8, sysctl_sched_migration_cost
	ldr	w8, [x8, :lo12:sysctl_sched_migration_cost]
.Ltmp394:
	.loc	1 333 6 is_stmt 0
	cmn	w8, #1
	b.eq	.LBB10_43
.Ltmp395:
	cbz	w8, .LBB10_27
.Ltmp396:
	.loc	1 338 18 is_stmt 1
	ldr	x9, [x19, #2432]
	.loc	1 338 37 is_stmt 0
	ldr	x10, [x20, #264]
	.loc	1 338 29
	sub	x9, x9, x10
.Ltmp397:
	.loc	1 366 6 is_stmt 1
	cmp	x9, x8
	b.ge	.LBB10_27
.Ltmp398:
.LBB10_43:
	.loc	1 421 2
	mov	x0, x19
	.loc	1 420 28
	str	wzr, [x19, #3624]
.Ltmp399:
.LBB10_44:
	.loc	1 0 0 is_stmt 0
	bl	_raw_spin_unlock
.Ltmp400:
	.loc	209 53 2 is_stmt 1
	msr	daifclr, #2	
	b	.LBB10_12
.Ltmp401:
.LBB10_45:
	.loc	1 405 4
	mov	x0, x28
	bl	_raw_spin_unlock
	b	.LBB10_23
.Ltmp402:
.LBB10_46:
	.loc	2 2323 4
	mov	x0, x28
	bl	_raw_spin_lock
.Ltmp403:
.LBB10_47:
	.loc	2 0 0 is_stmt 0
	mov	x0, x19
.Ltmp404:
.LBB10_48:
	bl	_raw_spin_lock
.Ltmp405:
	.loc	1 348 26 is_stmt 1
	ldr	w1, [x28, #2576]
	.loc	1 348 2 is_stmt 0
	mov	x0, x20
	bl	set_task_cpu
.Ltmp406:
	.loc	2 2273 2 is_stmt 1
	mov	x0, x28
	bl	_raw_spin_unlock
.Ltmp407:
	.loc	1 421 2
	mov	x0, x19
	.loc	1 420 28
	str	wzr, [x19, #3624]
	.loc	1 421 2
	bl	_raw_spin_unlock
.Ltmp408:
	.loc	1 354 2
	mov	x0, x28
	bl	_raw_spin_lock
.Ltmp409:
	.loc	202 193 149
	ldr	w8, [x20, #124]
.Ltmp410:
	.loc	1 355 309
	ldr	x8, [x22, x8, lsl #3]
.Ltmp411:
	.loc	1 355 304 is_stmt 0
	add	x8, x8, x23
.Ltmp412:
	.loc	1 355 11
	cmp	x28, x8
	b.ne	.LBB10_52
.Ltmp413:
	.loc	1 0 11
	orr	w8, wzr, #0x1
	.loc	1 357 2 is_stmt 1
	mov	x0, x28
	mov	x1, x20
	mov	w2, wzr
	.loc	1 356 11
	str	w8, [x20, #160]
	.loc	1 357 2
	bl	activate_task
	.loc	1 358 2
	mov	x0, x28
	mov	x1, x20
	mov	w2, wzr
	bl	check_preempt_curr
	.loc	1 359 2
	mov	x0, x28
	b	.LBB10_44
.Ltmp414:
.LBB10_50:
	.loc	2 2264 45
	.pushsection __bug_table,"aw"; .align 2; 14470: .long 14471f - 14470b; .pushsection .rodata.str,"aMS",@progbits,1; 14472: .string "../../kernel/oppocfs/../sched/sched.h"; .popsection; .long 14472b - 14470b; .short 2264; .short 0; .popsection; 14471: brk 0x800
.Ltmp415:
.LBB10_51:
	.loc	2 2314 342
	.pushsection __bug_table,"aw"; .align 2; 14470: .long 14471f - 14470b; .pushsection .rodata.str,"aMS",@progbits,1; 14472: .string "../../kernel/oppocfs/../sched/sched.h"; .popsection; .long 14472b - 14470b; .short 2314; .short 0; .popsection; 14471: brk 0x800
.Ltmp416:
.LBB10_52:
	.loc	1 355 378
	.pushsection __bug_table,"aw"; .align 2; 14470: .long 14471f - 14470b; .pushsection .rodata.str,"aMS",@progbits,1; 14472: .string "../../kernel/oppocfs/oppo_cfs_common.c"; .popsection; .long 14472b - 14470b; .short 355; .short 0; .popsection; 14471: brk 0x800
.Ltmp417:
.Lfunc_end10:
	.size	__do_ux_balance, .Lfunc_end10-__do_ux_balance
	.cfi_endproc
	.globl	ux_init_rq_data
	.p2align	3
	.type	ux_init_rq_data,@function
ux_init_rq_data:
.Lfunc_begin11:
	.loc	1 454 0
	.cfi_startproc
	.loc	1 455 6 prologue_end
	cbz	x0, .LBB11_2
	.loc	1 459 22
	add	x8, x0, #3608
.Ltmp418:
	.loc	1 458 24
	str	wzr, [x0, #3624]
.Ltmp419:
	.loc	202 220 31
	str	x8, [x0, #3608]
.Ltmp420:
	.loc	203 29 13
	str	x8, [x0, #3616]
.Ltmp421:
.LBB11_2:
	.loc	1 460 1
	ret
.Ltmp422:
.Lfunc_end11:
	.size	ux_init_rq_data, .Lfunc_end11-ux_init_rq_data
	.cfi_endproc
	.globl	ux_init_cpu_data
	.p2align	3
	.type	ux_init_cpu_data,@function
ux_init_cpu_data:
.Lfunc_begin12:
	.loc	1 463 0
	.cfi_startproc
	str	x19, [sp, #-32]!
	stp	x29, x30, [sp, #16]
	add	x29, sp, #16
	.cfi_def_cfa w29, 16
	.cfi_offset w30, -8
	.cfi_offset w29, -16
	.cfi_offset w19, -32
.Ltmp423:
	.file	210 "../../include/linux/bitmap.h"
	.loc	210 368 23 prologue_end
	adrp	x9, cpu_topology
	add	x9, x9, :lo12:cpu_topology
.Ltmp424:
	.loc	1 468 26
	adrp	x19, ux_prefer_cpu
	add	x19, x19, :lo12:ux_prefer_cpu
.Ltmp425:
	.loc	210 368 23
	ldrb	w0, [x9, #24]
	mov	x8, #-1
.Ltmp426:
	.loc	1 468 26
	stp	x8, x8, [x19]
.Ltmp427:
	stp	x8, x8, [x19, #16]
.Ltmp428:
	.file	211 "../../include/asm-generic/bitops/arch_hweight.h"
	.loc	211 24 9
	bl	__sw_hweight64
.Ltmp429:
	.loc	1 472 9
	cbz	w0, .LBB12_5
.Ltmp430:
	.loc	1 477 5
	cmp	w0, #7
	b.gt	.LBB12_6
.Ltmp431:
	.loc	1 0 5 is_stmt 0
	mov	x8, xzr
.Ltmp432:
.LBB12_3:
	.loc	1 478 34 is_stmt 1
	add	w9, w0, w8
	.loc	1 478 26 is_stmt 0
	str	w9, [x19, x8, lsl #2]
.Ltmp433:
	.loc	1 477 38 is_stmt 1
	add	x8, x8, #1
.Ltmp434:
	.loc	1 477 5 is_stmt 0
	cmp	x8, #7
	b.hi	.LBB12_6
	.loc	1 0 0
	add	w9, w9, #1
	.loc	1 477 5
	cmp	w9, #8
	b.lt	.LBB12_3
	b	.LBB12_6
.Ltmp435:
.LBB12_5:
	.loc	1 473 9 is_stmt 1
	adrp	x0, .L.str
.Ltmp436:
	adrp	x1, .L__func__.ux_init_cpu_data
	add	x0, x0, :lo12:.L.str
	add	x1, x1, :lo12:.L__func__.ux_init_cpu_data
	bl	printk_deferred
.Ltmp437:
.LBB12_6:
	.loc	1 480 1
	ldp	x29, x30, [sp, #16]
	ldr	x19, [sp], #32
	ret
.Ltmp438:
.Lfunc_end12:
	.size	ux_init_cpu_data, .Lfunc_end12-ux_init_cpu_data
	.cfi_endproc
	.file	212 "../../include/linux/bitops.h"
	.globl	test_ux_task_cpu
	.p2align	3
	.type	test_ux_task_cpu,@function
test_ux_task_cpu:
.Lfunc_begin13:
	.loc	1 482 0
	.cfi_startproc
	.loc	1 483 20 prologue_end
	adrp	x8, ux_prefer_cpu
	ldr	w8, [x8, :lo12:ux_prefer_cpu]
	.loc	1 483 17 is_stmt 0
	cmp	w8, w0
	cset	w0, le
.Ltmp439:
	.loc	1 483 5
	ret
.Ltmp440:
.Lfunc_end13:
	.size	test_ux_task_cpu, .Lfunc_end13-test_ux_task_cpu
	.cfi_endproc
	.globl	find_ux_task_cpu
	.p2align	3
	.type	find_ux_task_cpu,@function
find_ux_task_cpu:
.Lfunc_begin14:
	.loc	1 486 0 is_stmt 1
	.cfi_startproc
	sub	sp, sp, #112
	stp	x28, x27, [sp, #16]
	stp	x26, x25, [sp, #32]
	stp	x24, x23, [sp, #48]
	stp	x22, x21, [sp, #64]
	stp	x20, x19, [sp, #80]
	stp	x29, x30, [sp, #96]
	add	x29, sp, #96
	.cfi_def_cfa w29, 16
	.cfi_offset w30, -8
	.cfi_offset w29, -16
	.cfi_offset w19, -24
	.cfi_offset w20, -32
	.cfi_offset w21, -40
	.cfi_offset w22, -48
	.cfi_offset w23, -56
	.cfi_offset w24, -64
	.cfi_offset w25, -72
	.cfi_offset w26, -80
	.cfi_offset w27, -88
	.cfi_offset w28, -96
.Ltmp441:
	adrp	x8, ux_prefer_cpu
	stp	x1, x0, [sp]
.Ltmp442:
	add	x8, x8, :lo12:ux_prefer_cpu
	adrp	x22, __per_cpu_offset
	adrp	x23, runqueues
	adrp	x25, __cpu_online_mask
	adrp	x28, __cpu_isolated_mask
	adrp	x27, fair_sched_class
	add	x21, x8, #28
	orr	w8, wzr, #0x7
.Ltmp443:
	add	x22, x22, :lo12:__per_cpu_offset
	add	x23, x23, :lo12:runqueues
	add	x25, x25, :lo12:__cpu_online_mask
	orr	w26, wzr, #0x1
	add	x28, x28, :lo12:__cpu_isolated_mask
	add	x27, x27, :lo12:fair_sched_class
.Ltmp444:
.LBB14_1:
	.loc	1 492 20 prologue_end
	ldr	w24, [x21]
.Ltmp445:
	.loc	1 0 20 is_stmt 0
	mov	x19, x8
.Ltmp446:
	.loc	1 493 27 is_stmt 1
	sub	w8, w24, #1
	cmp	w8, #6
	b.hi	.LBB14_13
.Ltmp447:
	.loc	1 0 0 is_stmt 0
	sxtw	x8, w24
.Ltmp448:
	.loc	1 496 292 is_stmt 1
	ldr	x8, [x22, x8, lsl #3]
.Ltmp449:
	.loc	1 496 287 is_stmt 0
	adds	x8, x8, x23
.Ltmp450:
	.loc	1 497 13 is_stmt 1
	b.eq	.LBB14_13
.Ltmp451:
	.loc	1 500 17
	ldr	x20, [x8, #2376]
.Ltmp452:
	.loc	1 500 23 is_stmt 0
	ldr	w8, [x20, #164]
.Ltmp453:
	.loc	1 500 13
	cmp	w8, #101
	b.lt	.LBB14_13
.Ltmp454:
	.loc	1 49 14 is_stmt 1
	cbz	x20, .LBB14_9
.Ltmp455:
	.loc	1 49 23 is_stmt 0
	ldr	x8, [x20, #184]
.Ltmp456:
	.loc	1 49 9
	cmp	x8, x27
	b.ne	.LBB14_10
.Ltmp457:
	.loc	1 52 23 is_stmt 1
	ldr	w8, [x20, #2744]
.Ltmp458:
	.loc	1 52 9 is_stmt 0
	cbnz	w8, .LBB14_13
.Ltmp459:
	.loc	1 55 28 is_stmt 1
	adrp	x8, jiffies
	ldr	x0, [x8, :lo12:jiffies]
.Ltmp460:
	.loc	201 296 14
	bl	jiffies_to_usecs
.Ltmp461:
	.loc	202 193 202
	ldr	x8, [x20, #2752]
.Ltmp462:
	.loc	1 56 340
	cbz	x8, .LBB14_10
.Ltmp463:
	.loc	1 57 48
	adrp	x8, ux_max_dynamic_granularity
	.loc	1 57 22 is_stmt 0
	ldr	x9, [x20, #2792]
.Ltmp464:
	.loc	201 296 34 is_stmt 1
	mov	w10, #1000
.Ltmp465:
	.loc	1 57 75
	mov	w11, #16960
	.loc	1 57 48 is_stmt 0
	ldrsw	x8, [x8, :lo12:ux_max_dynamic_granularity]
	.loc	1 57 75
	movk	w11, #15, lsl #16
.Ltmp466:
	.loc	201 296 34 is_stmt 1
	umull	x10, w0, w10
.Ltmp467:
	.loc	1 57 14
	sub	x9, x10, x9
	.loc	1 57 75 is_stmt 0
	mul	x8, x8, x11
.Ltmp468:
	.loc	1 56 9 is_stmt 1
	cmp	x9, x8
	b.hi	.LBB14_10
	b	.LBB14_13
.Ltmp469:
.LBB14_9:
	.loc	1 55 28
	adrp	x8, jiffies
	ldr	x0, [x8, :lo12:jiffies]
.Ltmp470:
	.loc	201 296 14
	bl	jiffies_to_usecs
.Ltmp471:
.LBB14_10:
	.loc	201 0 14 is_stmt 0
	ubfx	x8, x24, #6, #2
.Ltmp472:
	.loc	1 503 40 is_stmt 1
	lsl	x9, x26, x24
.Ltmp473:
	.loc	208 106 16
	ldr	x10, [x25, x8, lsl #3]
.Ltmp474:
	.loc	1 503 40
	tst	x10, x9
	.loc	1 503 115 is_stmt 0
	b.eq	.LBB14_13
.Ltmp475:
	.loc	208 106 16 is_stmt 1
	ldr	x10, [x28, x8, lsl #3]
.Ltmp476:
	.loc	1 503 119
	tst	x10, x9
	.loc	1 504 17
	b.ne	.LBB14_13
.Ltmp477:
	.loc	1 0 17 is_stmt 0
	ldr	x10, [sp, #8]
.Ltmp478:
	.loc	208 106 16 is_stmt 1
	add	x8, x10, x8, lsl #3
	ldr	x8, [x8, #1144]
.Ltmp479:
	.loc	1 504 20
	tst	x8, x9
.Ltmp480:
	.loc	1 503 13
	b.ne	.LBB14_15
.Ltmp481:
.LBB14_13:
	.loc	1 491 31
	sub	x8, x19, #1
	.loc	1 491 25 is_stmt 0
	sub	x21, x21, #4
.Ltmp482:
	.loc	1 491 5
	cbnz	x19, .LBB14_1
.Ltmp483:
.LBB14_14:
	.loc	1 510 1 is_stmt 1
	ldp	x29, x30, [sp, #96]
	ldp	x20, x19, [sp, #80]
	ldp	x22, x21, [sp, #64]
	ldp	x24, x23, [sp, #48]
.Ltmp484:
	ldp	x26, x25, [sp, #32]
	ldp	x28, x27, [sp, #16]
	add	sp, sp, #112
.Ltmp485:
	ret
.LBB14_15:
.Ltmp486:
	.loc	1 0 1 is_stmt 0
	ldr	x8, [sp]
.Ltmp487:
	.loc	1 505 25 is_stmt 1
	str	w24, [x8]
	b	.LBB14_14
.Ltmp488:
.Lfunc_end14:
	.size	find_ux_task_cpu, .Lfunc_end14-find_ux_task_cpu
	.cfi_endproc
	.type	ux_max_dynamic_exist,@object
	.data
	.globl	ux_max_dynamic_exist
	.p2align	2
ux_max_dynamic_exist:
	.word	1000
	.size	ux_max_dynamic_exist, 4
	.type	ux_max_dynamic_granularity,@object
	.globl	ux_max_dynamic_granularity
	.p2align	2
ux_max_dynamic_granularity:
	.word	32
	.size	ux_max_dynamic_granularity, 4
	.type	ux_min_migration_delay,@object
	.globl	ux_min_migration_delay
	.p2align	2
ux_min_migration_delay:
	.word	10
	.size	ux_min_migration_delay, 4
	.type	ux_max_over_thresh,@object
	.globl	ux_max_over_thresh
	.p2align	2
ux_max_over_thresh:
	.word	2000
	.size	ux_max_over_thresh, 4
	.type	ux_min_sched_delay_granularity,@object
	.bss
	.globl	ux_min_sched_delay_granularity
	.p2align	2
ux_min_sched_delay_granularity:
	.word	0
	.size	ux_min_sched_delay_granularity, 4
	.type	ux_prefer_cpu,@object
	.globl	ux_prefer_cpu
	.p2align	2
ux_prefer_cpu:
	.zero	32
	.size	ux_prefer_cpu, 32
	.type	.L.str,@object
	.section	.rodata.str1.1,"aMS",@progbits,1
.L.str:
	.asciz	"\0014[UIFIRST_WARN][%s]failed to init ux cpu data\n"
	.size	.L.str, 48
	.type	.L__func__.ux_init_cpu_data,@object
.L__func__.ux_init_cpu_data:
	.asciz	"ux_init_cpu_data"
	.size	.L__func__.ux_init_cpu_data, 17
	.section	".note.GNU-stack","",@progbits