	.text
	.file	"oppo_cfs_mutex.c"
	.file	1 "../../include/linux/hrtimer.h"
	.file	2 "../../include/linux/restart_block.h"
	.file	3 "../../include/linux/stddef.h"
	.file	4 "../../include/linux/sched.h"
	.file	5 "../../include/linux/types.h"
	.file	6 "../../include/linux/mutex.h"
	.file	7 "../../arch/arm64/include/asm/thread_info.h"
	.file	8 "../../include/linux/llist.h"
	.file	9 "../../include/uapi/asm-generic/int-ll64.h"
	.file	10 "../../include/asm-generic/int-ll64.h"
	.file	11 "../../include/linux/rbtree.h"
	.file	12 "../../include/linux/timerqueue.h"
	.file	13 "../../include/linux/ktime.h"
	.file	14 "../../include/asm-generic/qspinlock_types.h"
	.file	15 "../../include/linux/spinlock_types.h"
	.file	16 "../../include/uapi/asm-generic/posix_types.h"
	.file	17 "../../include/linux/seqlock.h"
	.file	18 "../../include/linux/cpumask.h"
	.file	19 "../../include/linux/plist.h"
	.file	20 "../../include/linux/mm_types_task.h"
	.file	21 "../../include/uapi/linux/time.h"
	.file	22 "../../include/linux/pid.h"
	.file	23 "../../include/uapi/asm-generic/signal.h"
	.file	24 "../../include/linux/signal_types.h"
	.file	25 "../../include/linux/uidgid.h"
	.file	26 "../../include/linux/seccomp.h"
	.file	27 "../../include/uapi/asm-generic/siginfo.h"
	.file	28 "../../include/linux/task_io_accounting.h"
	.file	29 "../../include/linux/nodemask.h"
	.file	30 "../../include/asm-generic/atomic-long.h"
	.file	31 "../../include/linux/osq_lock.h"
	.file	32 "../../include/uapi/linux/rseq.h"
	.file	33 "../../arch/arm64/include/asm/processor.h"
	.file	34 "../../arch/arm64/include/uapi/asm/ptrace.h"
	.globl	mutex_list_add
	.p2align	3
	.type	mutex_list_add,@function
mutex_list_add:
.Lfunc_begin0:
	.file	35 "../../kernel/oppocfs/oppo_cfs_mutex.c"
	.loc	35 39 0
	.cfi_sections .debug_frame
	.cfi_startproc
	stp	x22, x21, [sp, #-48]!
	stp	x20, x19, [sp, #16]
	stp	x29, x30, [sp, #32]
	add	x29, sp, #32
	.cfi_def_cfa w29, 16
	.cfi_offset w30, -8
	.cfi_offset w29, -16
	.cfi_offset w19, -24
	.cfi_offset w20, -32
	.cfi_offset w21, -40
	.cfi_offset w22, -48
.Ltmp0:
	mov	x21, x3
	mov	x20, x2
.Ltmp1:
	mov	x19, x1
.Ltmp2:
	.loc	35 40 15 prologue_end
	bl	test_task_ux
.Ltmp3:
	.loc	35 41 13
	cbz	x19, .LBB0_11
.Ltmp4:
	cbz	x20, .LBB0_11
.Ltmp5:
	cbz	x21, .LBB0_11
.Ltmp6:
	.loc	35 44 12
	tbz	w0, #0, .LBB0_9
.Ltmp7:
	.loc	35 44 22 is_stmt 0
	ldr	x8, [x21, #32]
.Ltmp8:
	.loc	35 44 6
	cbnz	x8, .LBB0_9
.Ltmp9:
	.loc	35 26 21 is_stmt 1
	ldr	x22, [x20]
.Ltmp10:
.LBB0_6:
	.loc	35 26 2 is_stmt 0
	cmp	x22, x20
	b.eq	.LBB0_9
.Ltmp11:
	.loc	35 0 2
	mov	x21, x22
.Ltmp12:
	ldr	x22, [x22]
.Ltmp13:
	.loc	35 28 29 is_stmt 1
	ldr	x0, [x21, #16]
	.loc	35 28 8 is_stmt 0
	bl	test_task_ux
.Ltmp14:
	.loc	35 28 7
	tbnz	w0, #0, .LBB0_6
.Ltmp15:
	.loc	35 29 33 is_stmt 1
	ldr	x8, [x21, #8]
.Ltmp16:
	.file	36 "../../include/linux/list.h"
	.loc	36 79 30
	ldr	x9, [x8]
.Ltmp17:
	.loc	36 63 13
	str	x19, [x9, #8]
	.loc	36 64 12
	str	x9, [x19]
	b	.LBB0_10
.Ltmp18:
.LBB0_9:
	.loc	35 0 0 is_stmt 0
	ldr	x8, [x20, #8]
.Ltmp19:
	str	x19, [x20, #8]
	str	x20, [x19]
.Ltmp20:
.LBB0_10:
	str	x8, [x19, #8]
.Ltmp21:
	str	x19, [x8]
.Ltmp22:
.LBB0_11:
	.loc	35 49 1 is_stmt 1
	ldp	x29, x30, [sp, #32]
	ldp	x20, x19, [sp, #16]
.Ltmp23:
	ldp	x22, x21, [sp], #48
	ret
.Ltmp24:
.Lfunc_end0:
	.size	mutex_list_add, .Lfunc_end0-mutex_list_add
	.cfi_endproc
	.globl	mutex_dynamic_ux_enqueue
	.p2align	3
	.type	mutex_dynamic_ux_enqueue,@function
mutex_dynamic_ux_enqueue:
.Lfunc_begin1:
	.loc	35 52 0
	.cfi_startproc
	str	x21, [sp, #-48]!
	stp	x20, x19, [sp, #16]
	stp	x29, x30, [sp, #32]
	add	x29, sp, #32
	.cfi_def_cfa w29, 16
	.cfi_offset w30, -8
	.cfi_offset w29, -16
	.cfi_offset w19, -24
	.cfi_offset w20, -32
	.cfi_offset w21, -48
.Ltmp25:
	.loc	35 55 6 prologue_end
	cbz	x0, .LBB1_6
.Ltmp26:
	.loc	35 0 6 is_stmt 0
	mov	x19, x0
.Ltmp27:
	.loc	35 58 10 is_stmt 1
	mov	x0, x1
	mov	x20, x1
.Ltmp28:
	bl	test_set_dynamic_ux
.Ltmp29:
	.file	37 "../../include/linux/compiler.h"
	.loc	37 193 202
	ldr	x8, [x19]
.Ltmp30:
	.loc	35 64 12
	tbz	w0, #0, .LBB1_6
.Ltmp31:
	.loc	35 0 0 is_stmt 0
	and	x21, x8, #0xfffffffffffffff8
.Ltmp32:
	.loc	35 64 34
	cbz	x21, .LBB1_6
.Ltmp33:
	.loc	35 0 0
	ldr	x8, [x19, #32]
	.loc	35 64 34
	cbnz	x8, .LBB1_6
.Ltmp34:
	.loc	35 64 47
	mov	x0, x21
	bl	test_task_ux
.Ltmp35:
	.loc	35 64 6
	tbnz	w0, #0, .LBB1_6
.Ltmp36:
	.loc	35 65 53 is_stmt 1
	ldr	w2, [x20, #2776]
	.loc	35 65 3 is_stmt 0
	orr	w1, wzr, #0x2
	mov	x0, x21
	bl	dynamic_ux_enqueue
	.loc	35 66 21 is_stmt 1
	str	x21, [x19, #32]
.Ltmp37:
.LBB1_6:
	.loc	35 68 1
	ldp	x29, x30, [sp, #32]
	ldp	x20, x19, [sp, #16]
	ldr	x21, [sp], #48
	ret
.Ltmp38:
.Lfunc_end1:
	.size	mutex_dynamic_ux_enqueue, .Lfunc_end1-mutex_dynamic_ux_enqueue
	.cfi_endproc
	.globl	mutex_dynamic_ux_dequeue
	.p2align	3
	.type	mutex_dynamic_ux_dequeue,@function
mutex_dynamic_ux_dequeue:
.Lfunc_begin2:
	.loc	35 71 0
	.cfi_startproc
	str	x19, [sp, #-32]!
	stp	x29, x30, [sp, #16]
	add	x29, sp, #16
	.cfi_def_cfa w29, 16
	.cfi_offset w30, -8
	.cfi_offset w29, -16
	.cfi_offset w19, -32
	mov	x19, x0
.Ltmp39:
	.loc	35 72 11 prologue_end
	cbz	x0, .LBB2_3
.Ltmp40:
	.loc	35 72 20 is_stmt 0
	ldr	x8, [x19, #32]
	mov	x0, x1
.Ltmp41:
	.loc	35 72 6
	cmp	x8, x1
	b.ne	.LBB2_3
.Ltmp42:
	.loc	35 73 3 is_stmt 1
	orr	w1, wzr, #0x2
	bl	dynamic_ux_dequeue
.Ltmp43:
	.loc	35 74 21
	str	xzr, [x19, #32]
.Ltmp44:
.LBB2_3:
	.loc	35 76 1
	ldp	x29, x30, [sp, #16]
	ldr	x19, [sp], #32
.Ltmp45:
	ret
.Ltmp46:
.Lfunc_end2:
	.size	mutex_dynamic_ux_dequeue, .Lfunc_end2-mutex_dynamic_ux_dequeue
	.cfi_endproc
	.section	".note.GNU-stack","",@progbits