	.text
	.file	"oppo_cfs_rwsem.c"
	.file	1 "../../include/linux/hrtimer.h"
	.file	2 "../../include/linux/restart_block.h"
	.file	3 "../../include/linux/stddef.h"
	.file	4 "../../include/linux/sched.h"
	.file	5 "../../kernel/oppocfs/oppo_cfs_rwsem.c"
	.file	6 "../../include/linux/types.h"
	.file	7 "../../arch/arm64/include/asm/thread_info.h"
	.file	8 "../../include/linux/llist.h"
	.file	9 "../../include/uapi/asm-generic/int-ll64.h"
	.file	10 "../../include/asm-generic/int-ll64.h"
	.file	11 "../../include/linux/rbtree.h"
	.file	12 "../../include/linux/timerqueue.h"
	.file	13 "../../include/linux/ktime.h"
	.file	14 "../../include/asm-generic/qspinlock_types.h"
	.file	15 "../../include/linux/spinlock_types.h"
	.file	16 "../../include/uapi/asm-generic/posix_types.h"
	.file	17 "../../include/linux/seqlock.h"
	.file	18 "../../include/linux/cpumask.h"
	.file	19 "../../include/linux/plist.h"
	.file	20 "../../include/linux/mm_types_task.h"
	.file	21 "../../include/uapi/linux/time.h"
	.file	22 "../../include/linux/pid.h"
	.file	23 "../../include/uapi/asm-generic/signal.h"
	.file	24 "../../include/linux/signal_types.h"
	.file	25 "../../include/linux/uidgid.h"
	.file	26 "../../include/linux/seccomp.h"
	.file	27 "../../include/uapi/asm-generic/siginfo.h"
	.file	28 "../../include/linux/task_io_accounting.h"
	.file	29 "../../include/linux/nodemask.h"
	.file	30 "../../include/asm-generic/atomic-long.h"
	.file	31 "../../include/linux/mutex.h"
	.file	32 "../../include/linux/osq_lock.h"
	.file	33 "../../include/uapi/linux/rseq.h"
	.file	34 "../../arch/arm64/include/asm/processor.h"
	.file	35 "../../arch/arm64/include/uapi/asm/ptrace.h"
	.globl	rwsem_list_add
	.p2align	3
	.type	rwsem_list_add,@function
rwsem_list_add:
.Lfunc_begin0:
	.loc	5 56 0
	.cfi_sections .debug_frame
	.cfi_startproc
	str	x23, [sp, #-64]!
	stp	x22, x21, [sp, #16]
	stp	x20, x19, [sp, #32]
	stp	x29, x30, [sp, #48]
	add	x29, sp, #48
	.cfi_def_cfa w29, 16
	.cfi_offset w30, -8
	.cfi_offset w29, -16
	.cfi_offset w19, -24
	.cfi_offset w20, -32
	.cfi_offset w21, -40
	.cfi_offset w22, -48
	.cfi_offset w23, -64
.Ltmp0:
	mov	x19, x3
	mov	x21, x2
.Ltmp1:
	mov	x20, x1
.Ltmp2:
	.loc	5 57 15 prologue_end
	bl	test_task_ux
.Ltmp3:
	mov	w8, w0
	mov	w0, wzr
.Ltmp4:
	.loc	5 58 13
	cbz	x20, .LBB0_10
.Ltmp5:
	cbz	x21, .LBB0_10
.Ltmp6:
	tbz	w8, #0, .LBB0_10
.Ltmp7:
	.loc	5 43 24
	ldr	x22, [x21]
.Ltmp8:
	.loc	5 43 5 is_stmt 0
	cmp	x22, x21
	b.eq	.LBB0_8
.Ltmp9:
	.loc	5 0 0
	ldr	x8, [x22]
.Ltmp10:
.LBB0_5:
	.loc	5 45 35 is_stmt 1
	ldr	x0, [x22, #16]
	mov	x23, x8
.Ltmp11:
	.loc	5 45 14 is_stmt 0
	bl	test_task_ux
	.loc	5 45 41
	tbnz	w0, #0, .LBB0_7
.Ltmp12:
	.loc	5 45 52
	ldr	x8, [x22, #16]
	.loc	5 45 58
	ldr	w8, [x8, #164]
.Ltmp13:
	.loc	5 45 13
	cmp	w8, #101
	b.ge	.LBB0_11
.Ltmp14:
.LBB0_7:
	.loc	5 0 0
	ldr	x8, [x23]
.Ltmp15:
	mov	x22, x23
.Ltmp16:
	.loc	5 43 5 is_stmt 1
	cmp	x23, x21
	b.ne	.LBB0_5
.Ltmp17:
.LBB0_8:
	.file	36 "../../include/linux/list.h"
	.loc	36 93 24
	ldr	x8, [x21, #8]
.Ltmp18:
	.loc	36 63 13
	str	x20, [x21, #8]
	.loc	36 64 12
	str	x21, [x20]
.Ltmp19:
.LBB0_9:
	.loc	5 0 0 is_stmt 0
	str	x8, [x20, #8]
.Ltmp20:
	orr	w0, wzr, #0x1
	str	x20, [x8]
.Ltmp21:
	.loc	5 63 21 is_stmt 1
	ldr	x8, [x19, #40]
.Ltmp22:
	add	x8, x8, #1
	str	x8, [x19, #40]
.Ltmp23:
.LBB0_10:
	.loc	5 71 1
	ldp	x29, x30, [sp, #48]
	ldp	x20, x19, [sp, #32]
.Ltmp24:
	ldp	x22, x21, [sp, #16]
.Ltmp25:
	ldr	x23, [sp], #64
	ret
.LBB0_11:
.Ltmp26:
	.loc	5 46 42
	ldr	x8, [x22, #8]
.Ltmp27:
	.loc	36 79 30
	ldr	x9, [x8]
.Ltmp28:
	.loc	36 63 13
	str	x20, [x9, #8]
	.loc	36 64 12
	str	x9, [x20]
	b	.LBB0_9
.Ltmp29:
.Lfunc_end0:
	.size	rwsem_list_add, .Lfunc_end0-rwsem_list_add
	.cfi_endproc
	.globl	rwsem_dynamic_ux_enqueue
	.p2align	3
	.type	rwsem_dynamic_ux_enqueue,@function
rwsem_dynamic_ux_enqueue:
.Lfunc_begin1:
	.loc	5 74 0
	.cfi_startproc
	stp	x22, x21, [sp, #-48]!
	stp	x20, x19, [sp, #16]
	stp	x29, x30, [sp, #32]
	add	x29, sp, #32
	.cfi_def_cfa w29, 16
	.cfi_offset w30, -8
	.cfi_offset w29, -16
	.cfi_offset w19, -24
	.cfi_offset w20, -32
	.cfi_offset w21, -40
	.cfi_offset w22, -48
	mov	x19, x3
	mov	x20, x2
	mov	x22, x1
	mov	x21, x0
.Ltmp30:
	.loc	5 75 15 prologue_end
	bl	test_set_dynamic_ux
.Ltmp31:
	.loc	5 76 18
	cmp	x20, #2
	b.lo	.LBB1_7
.Ltmp32:
	cbz	x22, .LBB1_7
.Ltmp33:
	tbz	w0, #0, .LBB1_7
.Ltmp34:
	.loc	5 77 40
	mov	x0, x20
	bl	test_task_ux
	.loc	5 77 60 is_stmt 0
	cbz	x19, .LBB1_7
.Ltmp35:
	tbnz	w0, #0, .LBB1_7
.Ltmp36:
	.loc	5 77 76
	ldr	x8, [x19, #48]
.Ltmp37:
	.loc	5 77 7
	cbnz	x8, .LBB1_7
.Ltmp38:
	.loc	5 78 53 is_stmt 1
	ldr	w2, [x21, #2776]
	.loc	5 78 4 is_stmt 0
	orr	w1, wzr, #0x1
	mov	x0, x20
	bl	dynamic_ux_enqueue
	.loc	5 79 21 is_stmt 1
	str	x20, [x19, #48]
.Ltmp39:
.LBB1_7:
	.loc	5 82 1
	ldp	x29, x30, [sp, #32]
	ldp	x20, x19, [sp, #16]
.Ltmp40:
	ldp	x22, x21, [sp], #48
.Ltmp41:
	ret
.Ltmp42:
.Lfunc_end1:
	.size	rwsem_dynamic_ux_enqueue, .Lfunc_end1-rwsem_dynamic_ux_enqueue
	.cfi_endproc
	.globl	rwsem_dynamic_ux_dequeue
	.p2align	3
	.type	rwsem_dynamic_ux_dequeue,@function
rwsem_dynamic_ux_dequeue:
.Lfunc_begin2:
	.loc	5 85 0
	.cfi_startproc
	str	x19, [sp, #-32]!
	stp	x29, x30, [sp, #16]
	add	x29, sp, #16
	.cfi_def_cfa w29, 16
	.cfi_offset w30, -8
	.cfi_offset w29, -16
	.cfi_offset w19, -32
	mov	x19, x0
.Ltmp43:
	.loc	5 86 10 prologue_end
	cbz	x0, .LBB2_4
.Ltmp44:
	.loc	5 0 10 is_stmt 0
	mov	x0, x1
.Ltmp45:
	.loc	5 86 10
	cbz	x1, .LBB2_4
.Ltmp46:
	.loc	5 86 25
	ldr	x8, [x19, #48]
.Ltmp47:
	.loc	5 86 6
	cmp	x8, x0
	b.ne	.LBB2_4
.Ltmp48:
	.loc	5 87 3 is_stmt 1
	orr	w1, wzr, #0x1
	bl	dynamic_ux_dequeue
.Ltmp49:
	.loc	5 88 20
	str	xzr, [x19, #48]
.Ltmp50:
.LBB2_4:
	.loc	5 90 1
	ldp	x29, x30, [sp, #16]
	ldr	x19, [sp], #32
.Ltmp51:
	ret
.Ltmp52:
.Lfunc_end2:
	.size	rwsem_dynamic_ux_dequeue, .Lfunc_end2-rwsem_dynamic_ux_dequeue
	.cfi_endproc
	.file	37 "../../include/linux/rwsem.h"
	.section	".note.GNU-stack","",@progbits