	.text
	.file	"oppo_cfs_futex.c"
	.file	1 "../../include/linux/types.h"
	.file	2 "../../include/linux/rcupdate.h"
	.file	3 "../../include/linux/hrtimer.h"
	.file	4 "../../include/linux/restart_block.h"
	.file	5 "../../include/linux/uprobes.h"
	.file	6 "../../include/linux/stddef.h"
	.file	7 "../../include/linux/sched.h"
	.file	8 "../../arch/arm64/include/asm/thread_info.h"
	.file	9 "../../include/linux/llist.h"
	.file	10 "../../include/uapi/asm-generic/int-ll64.h"
	.file	11 "../../include/asm-generic/int-ll64.h"
	.file	12 "../../include/linux/rbtree.h"
	.file	13 "../../include/linux/timerqueue.h"
	.file	14 "../../include/linux/ktime.h"
	.file	15 "../../include/asm-generic/qspinlock_types.h"
	.file	16 "../../include/linux/spinlock_types.h"
	.file	17 "../../include/linux/lockdep.h"
	.file	18 "../../include/linux/stacktrace.h"
	.file	19 "../../include/uapi/asm-generic/posix_types.h"
	.file	20 "../../include/linux/seqlock.h"
	.file	21 "../../include/linux/cpumask.h"
	.file	22 "../../include/linux/plist.h"
	.file	23 "../../include/linux/mm_types.h"
	.file	24 "../../arch/arm64/include/asm/pgtable-types.h"
	.file	25 "../../include/asm-generic/atomic-long.h"
	.file	26 "../../include/asm-generic/qrwlock_types.h"
	.file	27 "../../include/linux/rwlock_types.h"
	.file	28 "../../include/linux/rwsem.h"
	.file	29 "../../include/linux/osq_lock.h"
	.file	30 "../../include/linux/mm_types_task.h"
	.file	31 "../../arch/arm64/include/asm/mmu.h"
	.file	32 "../../include/linux/completion.h"
	.file	33 "../../include/linux/wait.h"
	.file	34 "../../include/linux/workqueue.h"
	.file	35 "../../include/uapi/linux/time.h"
	.file	36 "../../include/linux/pid.h"
	.file	37 "../../include/uapi/asm-generic/signal.h"
	.file	38 "../../include/linux/signal_types.h"
	.file	39 "../../include/linux/uidgid.h"
	.file	40 "../../include/linux/seccomp.h"
	.file	41 "../../include/linux/mutex.h"
	.file	42 "../../include/uapi/asm-generic/siginfo.h"
	.file	43 "../../include/linux/task_io_accounting.h"
	.file	44 "../../include/linux/nodemask.h"
	.file	45 "../../include/uapi/linux/rseq.h"
	.file	46 "../../arch/arm64/include/asm/page.h"
	.file	47 "../../arch/arm64/include/asm/uprobes.h"
	.file	48 "../../arch/arm64/include/asm/processor.h"
	.file	49 "../../arch/arm64/include/uapi/asm/ptrace.h"
	.globl	get_futex_owner
	.p2align	3
	.type	get_futex_owner,@function
get_futex_owner:
.Lfunc_begin0:
	.file	50 "../../kernel/oppocfs/oppo_cfs_futex.c"
	.loc	50 20 0
	.cfi_sections .debug_frame
	.cfi_startproc
	sub	sp, sp, #64
	str	x21, [sp, #16]
	stp	x20, x19, [sp, #32]
	stp	x29, x30, [sp, #48]
	add	x29, sp, #48
	.cfi_def_cfa w29, 16
	.cfi_offset w30, -8
	.cfi_offset w29, -16
	.cfi_offset w19, -24
	.cfi_offset w20, -32
	.cfi_offset w21, -48
.Ltmp0:
	.loc	50 20 0 prologue_end
	adrp	x8, __stack_chk_guard
	mov	x19, x0
.Ltmp1:
	ldr	x8, [x8, :lo12:__stack_chk_guard]
	str	x8, [sp, #8]
	bl	_mcount
	mov	w8, #-1
.Ltmp2:
	.loc	50 21 9
	str	w8, [sp, #4]
	.loc	50 24 9
	cbz	x19, .LBB0_18
.Ltmp3:
	.file	51 "../../include/linux/uaccess.h"
	.loc	51 113 2
	adrp	x0, .L.str.3
	mov	w1, #113
	add	x0, x0, :lo12:.L.str.3
	bl	__might_fault
.Ltmp4:
	.file	52 "../../arch/arm64/include/asm/current.h"
	.loc	52 19 2
	mrs x20, sp_el0
.Ltmp5:
	.file	53 "../../arch/arm64/include/asm/uaccess.h"
	.loc	53 80 2
	mov	x9, x19
	.loc	53 77 68
	ldr	x8, [x20, #64]
.Ltmp6:
	.loc	53 80 2
		adds	x9, x9, #4
	csel	x8, xzr, x8, hi
	csinv	x9, x9, xzr, cc
	sbcs	xzr, x9, x8
	cset	x9, ls
.Ltmp7:
	.loc	51 114 6
	cbz	x9, .LBB0_14
.Ltmp8:
	.loc	53 250 59
	ldr	x8, [x20, #64]
.Ltmp9:
	.loc	51 116 12
	add	x0, sp, #4
	orr	w2, wzr, #0x4
.Ltmp10:
	.loc	53 246 2
		bics	xzr, x19, x8
	csel	x1, x19, xzr, eq
.Ltmp11:
	.loc	53 253 2
	hint #20
.Ltmp12:
	.loc	51 116 12
	bl	__arch_copy_from_user
.Ltmp13:
	.loc	51 118 6
	cbnz	x0, .LBB0_15
.Ltmp14:
	.loc	50 27 20
	ldr	w8, [sp, #4]
.Ltmp15:
	.loc	50 27 20 is_stmt 0
	cbz	w8, .LBB0_17
.Ltmp16:
	.loc	2 625 2 is_stmt 1
	bl	__rcu_read_lock
.Ltmp17:
	.loc	2 627 2
	adrp	x0, rcu_lock_map
	add	x0, x0, :lo12:rcu_lock_map
	bl	rcu_lock_acquire
.Ltmp18:
	.loc	2 628 80
	bl	debug_lockdep_rcu_enabled
	.loc	2 628 108 is_stmt 0
	cbz	w0, .LBB0_8
.Ltmp19:
	.loc	2 628 112
	adrp	x19, rcu_read_lock.__warned
.Ltmp20:
	ldrb	w8, [x19, :lo12:rcu_read_lock.__warned]
	.loc	2 628 121
	tbnz	w8, #0, .LBB0_8
	.loc	2 628 126
	bl	rcu_is_watching
.Ltmp21:
	.loc	2 628 80
	tbnz	w0, #0, .LBB0_8
.Ltmp22:
	.loc	2 628 165
	adrp	x0, .L.str.4
	adrp	x2, .L.str.5
	orr	w8, wzr, #0x1
	add	x0, x0, :lo12:.L.str.4
	mov	w1, #629
	add	x2, x2, :lo12:.L.str.5
	.loc	2 628 157
	strb	w8, [x19, :lo12:rcu_read_lock.__warned]
	.loc	2 628 165
	bl	lockdep_rcu_suspicious
.Ltmp23:
.LBB0_8:
	.loc	50 29 45 is_stmt 1
	ldr	w0, [sp, #4]
.Ltmp24:
	.loc	50 29 27 is_stmt 0
	bl	find_task_by_vpid
.Ltmp25:
	mov	x19, x0
.Ltmp26:
	.loc	2 677 80 is_stmt 1
	bl	debug_lockdep_rcu_enabled
	.loc	2 677 108 is_stmt 0
	cbz	w0, .LBB0_12
.Ltmp27:
	.loc	2 677 112
	adrp	x21, rcu_read_unlock.__warned
	ldrb	w8, [x21, :lo12:rcu_read_unlock.__warned]
	.loc	2 677 121
	tbnz	w8, #0, .LBB0_12
.Ltmp28:
	.loc	2 677 126
	bl	rcu_is_watching
.Ltmp29:
	.loc	2 677 80
	tbnz	w0, #0, .LBB0_12
.Ltmp30:
	.loc	2 677 165
	adrp	x0, .L.str.4
	adrp	x2, .L.str.6
	orr	w8, wzr, #0x1
	add	x0, x0, :lo12:.L.str.4
	mov	w1, #678
	add	x2, x2, :lo12:.L.str.6
	.loc	2 677 157
	strb	w8, [x21, :lo12:rcu_read_unlock.__warned]
	.loc	2 677 165
	bl	lockdep_rcu_suspicious
.Ltmp31:
.LBB0_12:
	.loc	2 680 2 is_stmt 1
	bl	__rcu_read_unlock
	.loc	2 681 2
	adrp	x0, rcu_lock_map
	add	x0, x0, :lo12:rcu_lock_map
	bl	rcu_lock_release
.Ltmp32:
	.loc	50 31 17
	cbnz	x19, .LBB0_18
.Ltmp33:
	.loc	50 32 146
	ldr	w3, [sp, #4]
.Ltmp34:
	.loc	50 32 17 is_stmt 0
	adrp	x0, .L.str.1
	adrp	x1, .L__func__.get_futex_owner
	.loc	50 32 125
	add	x2, x20, #2032
	.loc	50 32 17
	add	x0, x0, :lo12:.L.str.1
	add	x1, x1, :lo12:.L__func__.get_futex_owner
	bl	printk_deferred
.Ltmp35:
	.loc	50 0 17
	b	.LBB0_18
.Ltmp36:
.LBB0_14:
	orr	w2, wzr, #0x4
	b	.LBB0_16
.Ltmp37:
.LBB0_15:
	mov	x2, x0
.Ltmp38:
.LBB0_16:
	orr	w8, wzr, #0x4
.Ltmp39:
	.loc	51 119 18 is_stmt 1
	sub	x8, x8, x2
	add	x9, sp, #4
	.loc	51 119 13 is_stmt 0
	add	x0, x9, x8
	.loc	51 119 3
	mov	w1, wzr
	bl	memset
.Ltmp40:
	.loc	50 26 145 is_stmt 1
	ldr	w3, [sp, #4]
.Ltmp41:
	.loc	50 26 13 is_stmt 0
	adrp	x0, .L.str
	adrp	x1, .L__func__.get_futex_owner
	.loc	50 26 124
	add	x2, x20, #2032
	.loc	50 26 13
	add	x0, x0, :lo12:.L.str
	add	x1, x1, :lo12:.L__func__.get_futex_owner
	bl	printk_deferred
.Ltmp42:
.LBB0_17:
	.loc	50 0 13
	mov	x19, xzr
.Ltmp43:
.LBB0_18:
	adrp	x9, __stack_chk_guard
	ldr	x8, [sp, #8]
	ldr	x9, [x9, :lo12:__stack_chk_guard]
	cmp	x9, x8
	b.ne	.LBB0_20
.Ltmp44:
	.loc	50 37 5 is_stmt 1
	mov	x0, x19
	ldr	x21, [sp, #16]
	ldp	x29, x30, [sp, #48]
	ldp	x20, x19, [sp, #32]
.Ltmp45:
	add	sp, sp, #64
	ret
.Ltmp46:
.LBB0_20:
	.loc	50 0 5 is_stmt 0
	bl	__stack_chk_fail
.Lfunc_end0:
	.size	get_futex_owner, .Lfunc_end0-get_futex_owner
	.cfi_endproc
	.globl	futex_dynamic_ux_enqueue
	.p2align	3
	.type	futex_dynamic_ux_enqueue,@function
futex_dynamic_ux_enqueue:
.Lfunc_begin1:
	.loc	50 41 0 is_stmt 1
	.cfi_startproc
	stp	x20, x19, [sp, #-32]!
	stp	x29, x30, [sp, #16]
	add	x29, sp, #16
	.cfi_def_cfa w29, 16
	.cfi_offset w30, -8
	.cfi_offset w29, -16
	.cfi_offset w19, -24
	.cfi_offset w20, -32
	mov	x20, x1
	mov	x19, x0
.Ltmp47:
	.loc	50 41 0 prologue_end
	bl	_mcount
.Ltmp48:
	.loc	50 43 13
	mov	x0, x20
	bl	test_set_dynamic_ux
.Ltmp49:
	.loc	50 45 15
	cbz	x19, .LBB1_4
.Ltmp50:
	tbz	w0, #0, .LBB1_4
.Ltmp51:
	.loc	50 45 28 is_stmt 0
	mov	x0, x19
	bl	test_task_ux
.Ltmp52:
	.loc	50 45 9
	tbnz	w0, #0, .LBB1_4
.Ltmp53:
	.loc	50 46 59 is_stmt 1
	ldr	w2, [x20, #6432]
	.loc	50 46 9 is_stmt 0
	orr	w1, wzr, #0x4
	mov	x0, x19
	bl	dynamic_ux_enqueue
.Ltmp54:
.LBB1_4:
	.loc	50 48 1 is_stmt 1
	ldp	x29, x30, [sp, #16]
	ldp	x20, x19, [sp], #32
.Ltmp55:
	ret
.Ltmp56:
.Lfunc_end1:
	.size	futex_dynamic_ux_enqueue, .Lfunc_end1-futex_dynamic_ux_enqueue
	.cfi_endproc
	.globl	futex_dynamic_ux_dequeue
	.p2align	3
	.type	futex_dynamic_ux_dequeue,@function
futex_dynamic_ux_dequeue:
.Lfunc_begin2:
	.loc	50 51 0
	.cfi_startproc
	str	x19, [sp, #-32]!
	stp	x29, x30, [sp, #16]
	add	x29, sp, #16
	.cfi_def_cfa w29, 16
	.cfi_offset w30, -8
	.cfi_offset w29, -16
	.cfi_offset w19, -32
	mov	x19, x0
.Ltmp57:
	.loc	50 51 0 prologue_end
	bl	_mcount
.Ltmp58:
	.loc	50 53 9
	orr	w1, wzr, #0x4
	mov	x0, x19
	bl	test_dynamic_ux
.Ltmp59:
	.loc	50 53 9 is_stmt 0
	tbz	w0, #0, .LBB2_2
.Ltmp60:
	.loc	50 54 9 is_stmt 1
	orr	w1, wzr, #0x4
	mov	x0, x19
	bl	dynamic_ux_dequeue
.Ltmp61:
.LBB2_2:
	.loc	50 56 1
	ldp	x29, x30, [sp, #16]
	ldr	x19, [sp], #32
.Ltmp62:
	ret
.Ltmp63:
.Lfunc_end2:
	.size	futex_dynamic_ux_dequeue, .Lfunc_end2-futex_dynamic_ux_dequeue
	.cfi_endproc
	.p2align	3
	.type	rcu_lock_acquire,@function
rcu_lock_acquire:
.Lfunc_begin3:
	.loc	2 241 0
	.cfi_startproc
.Ltmp64:
	stp	x29, x30, [sp, #-16]!
	mov	x29, sp
	.cfi_def_cfa w29, 16
	.cfi_offset w30, -8
	.cfi_offset w29, -16
.Ltmp65:
	.loc	2 242 2 prologue_end
	adrp	x0, rcu_lock_map
	adrp	x6, .Ltmp64
	add	x0, x0, :lo12:rcu_lock_map
	add	x6, x6, :lo12:.Ltmp64
	orr	w3, wzr, #0x2
	mov	w1, wzr
	mov	w2, wzr
	mov	w4, wzr
	mov	x5, xzr
	bl	lock_acquire
.Ltmp66:
	.loc	2 243 1
	ldp	x29, x30, [sp], #16
	ret
.Ltmp67:
.Lfunc_end3:
	.size	rcu_lock_acquire, .Lfunc_end3-rcu_lock_acquire
	.cfi_endproc
	.p2align	3
	.type	rcu_lock_release,@function
rcu_lock_release:
.Lfunc_begin4:
	.loc	2 246 0
	.cfi_startproc
.Ltmp68:
	stp	x29, x30, [sp, #-16]!
	mov	x29, sp
	.cfi_def_cfa w29, 16
	.cfi_offset w30, -8
	.cfi_offset w29, -16
.Ltmp69:
	.loc	2 247 2 prologue_end
	adrp	x0, rcu_lock_map
	adrp	x2, .Ltmp68
	add	x0, x0, :lo12:rcu_lock_map
	add	x2, x2, :lo12:.Ltmp68
	orr	w1, wzr, #0x1
	bl	lock_release
.Ltmp70:
	.loc	2 248 1
	ldp	x29, x30, [sp], #16
	ret
.Ltmp71:
.Lfunc_end4:
	.size	rcu_lock_release, .Lfunc_end4-rcu_lock_release
	.cfi_endproc
	.type	.L.str,@object
	.section	.rodata.str1.1,"aMS",@progbits,1
.L.str:
	.asciz	"\0014[UIFIRST_WARN][%s]failed to get tid from uaddr2(curr:%-12s pid:%d)\n"
	.size	.L.str, 70
	.type	.L__func__.get_futex_owner,@object
.L__func__.get_futex_owner:
	.asciz	"get_futex_owner"
	.size	.L__func__.get_futex_owner, 16
	.type	.L.str.1,@object
.L.str.1:
	.asciz	"\0014[UIFIRST_WARN][%s]failed to find task by pid(curr:%-12s pid:%d)\n"
	.size	.L.str.1, 67
	.type	.L.str.3,@object
.L.str.3:
	.asciz	"../../include/linux/uaccess.h"
	.size	.L.str.3, 94
	.type	rcu_read_lock.__warned,@object
	.section	.data.unlikely,"aw",@progbits
rcu_read_lock.__warned:
	.byte	0
	.size	rcu_read_lock.__warned, 1
	.type	.L.str.4,@object
	.section	.rodata.str1.1,"aMS",@progbits,1
.L.str.4:
	.asciz	"../../include/linux/rcupdate.h"
	.size	.L.str.4, 95
	.type	.L.str.5,@object
.L.str.5:
	.asciz	"rcu_read_lock() used illegally while idle"
	.size	.L.str.5, 42
	.type	rcu_read_unlock.__warned,@object
	.section	.data.unlikely,"aw",@progbits
rcu_read_unlock.__warned:
	.byte	0
	.size	rcu_read_unlock.__warned, 1
	.type	.L.str.6,@object
	.section	.rodata.str1.1,"aMS",@progbits,1
.L.str.6:
	.asciz	"rcu_read_unlock() used illegally while idle"
	.size	.L.str.6, 44
	.section	".note.GNU-stack","",@progbits