	.text
	.file	"oppo_cfs_mutex.c"
	.file	1 "../../include/linux/hrtimer.h"
	.file	2 "../../include/linux/restart_block.h"
	.file	3 "../../include/linux/stddef.h"
	.file	4 "../../include/linux/sched.h"
	.file	5 "../../include/linux/types.h"
	.file	6 "../../include/linux/mutex.h"
	.file	7 "../../arch/arm64/include/asm/thread_info.h"
	.file	8 "../../include/linux/llist.h"
	.file	9 "../../include/uapi/asm-generic/int-ll64.h"
	.file	10 "../../include/asm-generic/int-ll64.h"
	.file	11 "../../include/linux/rbtree.h"
	.file	12 "../../include/linux/timerqueue.h"
	.file	13 "../../include/linux/ktime.h"
	.file	14 "../../include/asm-generic/qspinlock_types.h"
	.file	15 "../../include/linux/spinlock_types.h"
	.file	16 "../../include/linux/lockdep.h"
	.file	17 "../../include/linux/stacktrace.h"
	.file	18 "../../include/uapi/asm-generic/posix_types.h"
	.file	19 "../../include/linux/seqlock.h"
	.file	20 "../../include/linux/cpumask.h"
	.file	21 "../../include/linux/plist.h"
	.file	22 "../../include/linux/mm_types_task.h"
	.file	23 "../../include/uapi/linux/time.h"
	.file	24 "../../include/linux/pid.h"
	.file	25 "../../include/uapi/asm-generic/signal.h"
	.file	26 "../../include/linux/signal_types.h"
	.file	27 "../../include/linux/uidgid.h"
	.file	28 "../../include/linux/seccomp.h"
	.file	29 "../../include/uapi/asm-generic/siginfo.h"
	.file	30 "../../include/linux/task_io_accounting.h"
	.file	31 "../../include/linux/nodemask.h"
	.file	32 "../../include/asm-generic/atomic-long.h"
	.file	33 "../../include/linux/osq_lock.h"
	.file	34 "../../include/uapi/linux/rseq.h"
	.file	35 "../../arch/arm64/include/asm/processor.h"
	.file	36 "../../arch/arm64/include/uapi/asm/ptrace.h"
	.globl	mutex_list_add
	.p2align	3
	.type	mutex_list_add,@function
mutex_list_add:
.Lfunc_begin0:
	.file	37 "../../kernel/oppocfs/oppo_cfs_mutex.c"
	.loc	37 39 0
	.cfi_sections .debug_frame
	.cfi_startproc
	stp	x22, x21, [sp, #-48]!
	stp	x20, x19, [sp, #16]
	stp	x29, x30, [sp, #32]
	add	x29, sp, #32
	.cfi_def_cfa w29, 16
	.cfi_offset w30, -8
	.cfi_offset w29, -16
	.cfi_offset w19, -24
	.cfi_offset w20, -32
	.cfi_offset w21, -40
	.cfi_offset w22, -48
.Ltmp0:
	mov	x21, x3
	mov	x20, x2
.Ltmp1:
	mov	x19, x1
.Ltmp2:
	mov	x22, x0
.Ltmp3:
	.loc	37 39 0 prologue_end
	bl	_mcount
	.loc	37 40 15
	mov	x0, x22
.Ltmp4:
	bl	test_task_ux
.Ltmp5:
	.loc	37 41 13
	cbz	x19, .LBB0_12
.Ltmp6:
	cbz	x20, .LBB0_12
.Ltmp7:
	cbz	x21, .LBB0_12
.Ltmp8:
	.loc	37 44 12
	tbz	w0, #0, .LBB0_10
.Ltmp9:
	.loc	37 44 22 is_stmt 0
	ldr	x8, [x21, #176]
.Ltmp10:
	.loc	37 44 6
	cbnz	x8, .LBB0_10
.Ltmp11:
	.loc	37 26 21 is_stmt 1
	ldr	x22, [x20]
.Ltmp12:
.LBB0_6:
	.loc	37 26 2 is_stmt 0
	cmp	x22, x20
	b.eq	.LBB0_10
.Ltmp13:
	.loc	37 0 2
	mov	x21, x22
.Ltmp14:
	ldr	x22, [x22]
.Ltmp15:
	.loc	37 28 29 is_stmt 1
	ldr	x0, [x21, #16]
	.loc	37 28 8 is_stmt 0
	bl	test_task_ux
.Ltmp16:
	.loc	37 28 7
	tbnz	w0, #0, .LBB0_6
.Ltmp17:
	.loc	37 29 33 is_stmt 1
	ldr	x20, [x21, #8]
.Ltmp18:
	.file	38 "../../include/linux/list.h"
	.loc	38 60 7
	mov	x0, x19
.Ltmp19:
	.loc	38 79 30
	ldr	x21, [x20]
.Ltmp20:
	.loc	38 60 7
	mov	x1, x20
	mov	x2, x21
	bl	__list_add_valid
.Ltmp21:
	.loc	38 60 6 is_stmt 0
	tbz	w0, #0, .LBB0_12
.Ltmp22:
	.loc	38 63 13 is_stmt 1
	str	x19, [x21, #8]
	.loc	38 64 12
	stp	x21, x20, [x19]
.Ltmp23:
	.file	39 "../../include/linux/compiler.h"
	.loc	39 220 31
	str	x19, [x20]
	b	.LBB0_12
.Ltmp24:
.LBB0_10:
	.loc	37 0 0 is_stmt 0
	ldr	x21, [x20, #8]
.Ltmp25:
	mov	x0, x19
	mov	x2, x20
	mov	x1, x21
	bl	__list_add_valid
	tbz	w0, #0, .LBB0_12
.Ltmp26:
	str	x19, [x20, #8]
	stp	x20, x21, [x19]
.Ltmp27:
	str	x19, [x21]
.Ltmp28:
.LBB0_12:
	.loc	37 49 1 is_stmt 1
	ldp	x29, x30, [sp, #32]
	ldp	x20, x19, [sp, #16]
.Ltmp29:
	ldp	x22, x21, [sp], #48
	ret
.Ltmp30:
.Lfunc_end0:
	.size	mutex_list_add, .Lfunc_end0-mutex_list_add
	.cfi_endproc
	.globl	mutex_dynamic_ux_enqueue
	.p2align	3
	.type	mutex_dynamic_ux_enqueue,@function
mutex_dynamic_ux_enqueue:
.Lfunc_begin1:
	.loc	37 52 0
	.cfi_startproc
	str	x21, [sp, #-48]!
	stp	x20, x19, [sp, #16]
	stp	x29, x30, [sp, #32]
	add	x29, sp, #32
	.cfi_def_cfa w29, 16
	.cfi_offset w30, -8
	.cfi_offset w29, -16
	.cfi_offset w19, -24
	.cfi_offset w20, -32
	.cfi_offset w21, -48
.Ltmp31:
	mov	x20, x1
	mov	x19, x0
.Ltmp32:
	.loc	37 52 0 prologue_end
	bl	_mcount
.Ltmp33:
	.loc	37 55 6
	cbz	x19, .LBB1_6
.Ltmp34:
	.loc	37 58 10
	mov	x0, x20
	bl	test_set_dynamic_ux
.Ltmp35:
	.loc	39 193 202
	ldr	x8, [x19]
.Ltmp36:
	.loc	37 64 12
	tbz	w0, #0, .LBB1_6
.Ltmp37:
	.loc	37 0 0 is_stmt 0
	and	x21, x8, #0xfffffffffffffff8
.Ltmp38:
	.loc	37 64 34
	cbz	x21, .LBB1_6
.Ltmp39:
	.loc	37 0 0
	ldr	x8, [x19, #176]
	.loc	37 64 34
	cbnz	x8, .LBB1_6
.Ltmp40:
	.loc	37 64 47
	mov	x0, x21
	bl	test_task_ux
.Ltmp41:
	.loc	37 64 6
	tbnz	w0, #0, .LBB1_6
.Ltmp42:
	.loc	37 65 53 is_stmt 1
	ldr	w2, [x20, #6432]
	.loc	37 65 3 is_stmt 0
	orr	w1, wzr, #0x2
	mov	x0, x21
	bl	dynamic_ux_enqueue
	.loc	37 66 21 is_stmt 1
	str	x21, [x19, #176]
.Ltmp43:
.LBB1_6:
	.loc	37 68 1
	ldp	x29, x30, [sp, #32]
	ldp	x20, x19, [sp, #16]
.Ltmp44:
	ldr	x21, [sp], #48
	ret
.Ltmp45:
.Lfunc_end1:
	.size	mutex_dynamic_ux_enqueue, .Lfunc_end1-mutex_dynamic_ux_enqueue
	.cfi_endproc
	.globl	mutex_dynamic_ux_dequeue
	.p2align	3
	.type	mutex_dynamic_ux_dequeue,@function
mutex_dynamic_ux_dequeue:
.Lfunc_begin2:
	.loc	37 71 0
	.cfi_startproc
	stp	x20, x19, [sp, #-32]!
	stp	x29, x30, [sp, #16]
	add	x29, sp, #16
	.cfi_def_cfa w29, 16
	.cfi_offset w30, -8
	.cfi_offset w29, -16
	.cfi_offset w19, -24
	.cfi_offset w20, -32
	mov	x20, x1
	mov	x19, x0
.Ltmp46:
	.loc	37 71 0 prologue_end
	bl	_mcount
.Ltmp47:
	.loc	37 72 11
	cbz	x19, .LBB2_3
.Ltmp48:
	.loc	37 72 20 is_stmt 0
	ldr	x8, [x19, #176]
.Ltmp49:
	.loc	37 72 6
	cmp	x8, x20
	b.ne	.LBB2_3
.Ltmp50:
	.loc	37 73 3 is_stmt 1
	orr	w1, wzr, #0x2
	mov	x0, x20
	bl	dynamic_ux_dequeue
	.loc	37 74 21
	str	xzr, [x19, #176]
.Ltmp51:
.LBB2_3:
	.loc	37 76 1
	ldp	x29, x30, [sp, #16]
	ldp	x20, x19, [sp], #32
.Ltmp52:
	ret
.Ltmp53:
.Lfunc_end2:
	.size	mutex_dynamic_ux_dequeue, .Lfunc_end2-mutex_dynamic_ux_dequeue
	.cfi_endproc
	.section	".note.GNU-stack","",@progbits